gpasm-1.5.2 #1325 (Nov 17 2022)   asmfile.asm   26/10/2023  18:12:30        PAGE  1


LOC    OBJECT CODE    LINE  SOURCE TEXT
  VALUE

Warning[215]: Processor superseded by command line.
                      00001         processor p16f884
                      00002         radix dec
                      00003 
                      00004         include p16f884.inc
                      00001         LIST
                      00002 
                      00003 ;==========================================================================
                      00004 ; Build date : Oct 21 2015
                      00005 ;  MPASM PIC16F884 processor include
                      00006 ; 
                      00007 ;  (c) Copyright 1999-2015 Microchip Technology, All rights reserved
                      00008 ;==========================================================================
                      00009 
                      00812         LIST
                      00005 
                      00006 ; The recognition of labels and registers is not always good, therefore
                      00007 ; be treated cautiously the results.
                      00008 
                      00009         CONFIG  FOSC  = HS
                      00010         CONFIG  WDTE  = OFF
                      00011         CONFIG  PWRTE = OFF
                      00012         CONFIG  MCLRE = ON
                      00013         CONFIG  CP    = OFF
                      00014         CONFIG  CPD   = OFF
                      00015         CONFIG  BOREN = OFF
                      00016         CONFIG  IESO  = OFF
                      00017         CONFIG  FCMEN = ON
                      00018         CONFIG  LVP   = OFF
                      00019         CONFIG  DEBUG = OFF
                      00020         CONFIG  BOR4V = BOR40V
                      00021         CONFIG  WRT   = OFF
                      00022 
2000   0000 000A 0002 00023         __idlocs 0x0A2A
       000A           
                      00024 
                      00025 ;===============================================================================
                      00026 ; CODE area
                      00027 
                      00028         ; code
                      00029 
0000                  00030         org     __CODE_START                                ; address: 0x0000
                      00031 
0000                  00032 vector_reset:                                               ; address: 0x0000
                      00033 
0000   2801           00034         goto    label_001
                      00035 
0001                  00036 label_001:                                                  ; address: 0x0001
                      00037 
0001   1283           00038         bcf     STATUS, RP0                                 ; reg: 0x003, bit: 5
0002   1303           00039         bcf     STATUS, RP1                                 ; reg: 0x003, bit: 6
Message[1302]: RAM Bank undefined in this chunk of code. Ensure that bank bits are correct. Assuming bank 0 from now on.
0003   0185           00040         clrf    PORTA                                       ; reg: 0x005
gpasm-1.5.2 #1325 (Nov 17 2022)   asmfile.asm   26/10/2023  18:12:30        PAGE  2


LOC    OBJECT CODE    LINE  SOURCE TEXT
  VALUE

                      00041 
0004                  00042 vector_int:                                                 ; address: 0x0004
                      00043 
0004   1683           00044         bsf     STATUS, RP0                                 ; reg: 0x003, bit: 5
0005   1703           00045         bsf     STATUS, RP1                                 ; reg: 0x003, bit: 6
0006   0188           00046         clrf    ANSEL                                       ; reg: 0x188
0007   1303           00047         bcf     STATUS, RP1                                 ; reg: 0x003, bit: 6
0008   30FF           00048         movlw   0xff
0009   0085           00049         movwf   TRISA                                       ; reg: 0x085
000A   1283           00050         bcf     STATUS, RP0                                 ; reg: 0x003, bit: 5
000B   1283           00051         bcf     STATUS, RP0                                 ; reg: 0x003, bit: 5
000C   1303           00052         bcf     STATUS, RP1                                 ; reg: 0x003, bit: 6
000D   0186           00053         clrf    PORTB                                       ; reg: 0x006
000E   1703           00054         bsf     STATUS, RP1                                 ; reg: 0x003, bit: 6
000F   1683           00055         bsf     STATUS, RP0                                 ; reg: 0x003, bit: 5
0010   0189           00056         clrf    ANSELH                                      ; reg: 0x189
0011   1303           00057         bcf     STATUS, RP1                                 ; reg: 0x003, bit: 6
0012   1683           00058         bsf     STATUS, RP0                                 ; reg: 0x003, bit: 5
0013   30FF           00059         movlw   0xff
0014   0086           00060         movwf   TRISB                                       ; reg: 0x086
0015   1283           00061         bcf     STATUS, RP0                                 ; reg: 0x003, bit: 5
0016   0187           00062         clrf    PORTC                                       ; reg: 0x007
0017   1683           00063         bsf     STATUS, RP0                                 ; reg: 0x003, bit: 5
0018   3000           00064         movlw   0x00
0019   0087           00065         movwf   TRISC                                       ; reg: 0x087
001A   1283           00066         bcf     STATUS, RP0                                 ; reg: 0x003, bit: 5
001B   0188           00067         clrf    PORTD                                       ; reg: 0x008
001C   1683           00068         bsf     STATUS, RP0                                 ; reg: 0x003, bit: 5
001D   3000           00069         movlw   0x00
001E   0088           00070         movwf   TRISD                                       ; reg: 0x088
001F   1283           00071         bcf     STATUS, RP0                                 ; reg: 0x003, bit: 5
0020   170F           00072         bsf     TMR1H, 0x6                                  ; reg: 0x00f
0021   168F           00073         bsf     TMR1H, 0x5                                  ; reg: 0x00f
0022   120F           00074         bcf     TMR1H, 0x4                                  ; reg: 0x00f
0023   100F           00075         bcf     TMR1H, 0x0                                  ; reg: 0x00f
0024   1283           00076         bcf     STATUS, RP0                                 ; reg: 0x003, bit: 5
0025   1985           00077         btfsc   PORTA, RA3                                  ; reg: 0x005, bit: 3
0026   2828           00078         goto    label_003
0027   287C           00079         goto    label_014
                      00080 
0028                  00081 label_003:                                                  ; address: 0x0028
                      00082 
0028   249D           00083         call    function_011
0029   1683           00084         bsf     STATUS, RP0                                 ; reg: 0x003, bit: 5
Message[1302]: RAM Bank undefined in this chunk of code. Ensure that bank bits are correct. Assuming bank 0 from now on.
002A   1281           00085         bcf     TMR0, 0x5                                   ; reg: 0x001
002B   1283           00086         bcf     STATUS, RP0                                 ; reg: 0x003, bit: 5
002C   3001           00087         movlw   0x01
002D   00C5           00088         movwf   0x45                                        ; reg: 0x045
002E   3049           00089         movlw   0x49
002F   0084           00090         movwf   FSR                                         ; reg: 0x004
                      00091 
0030                  00092 label_004:                                                  ; address: 0x0030
gpasm-1.5.2 #1325 (Nov 17 2022)   asmfile.asm   26/10/2023  18:12:30        PAGE  3


LOC    OBJECT CODE    LINE  SOURCE TEXT
  VALUE

                      00093 
0030   248D           00094         call    function_009
Message[1302]: RAM Bank undefined in this chunk of code. Ensure that bank bits are correct. Assuming bank 0 from now on.
0031   1943           00095         btfsc   0x43, 0x2                                   ; reg: 0x043
0032   285C           00096         goto    label_010
0033   2248           00097         call    function_006
Message[1302]: RAM Bank undefined in this chunk of code. Ensure that bank bits are correct. Assuming bank 0 from now on.
0034   1C43           00098         btfss   0x43, 0x0                                   ; reg: 0x043
0035   2830           00099         goto    label_004
0036   083C           00100         movf    0x3c, W                                     ; reg: 0x03c
0037   00C8           00101         movwf   0x48                                        ; reg: 0x048
0038   0080           00102         movwf   INDF                                        ; reg: 0x000
0039   0A84           00103         incf    FSR, F                                      ; reg: 0x004
                      00104 
003A                  00105 label_005:                                                  ; address: 0x003a
                      00106 
003A   21C4           00107         call    function_001
Message[1302]: RAM Bank undefined in this chunk of code. Ensure that bank bits are correct. Assuming bank 0 from now on.
003B   0841           00108         movf    0x41, W                                     ; reg: 0x041
003C   00C7           00109         movwf   0x47                                        ; reg: 0x047
003D   09C7           00110         comf    0x47, F                                     ; reg: 0x047
003E   0848           00111         movf    0x48, W                                     ; reg: 0x048
003F   07C7           00112         addwf   0x47, F                                     ; reg: 0x047
0040   0FC7           00113         incfsz  0x47, F                                     ; reg: 0x047
0041   2846           00114         goto    label_007
0042   2843           00115         goto    label_006
                      00116 
0043                  00117 label_006:                                                  ; address: 0x0043
                      00118 
Message[1302]: RAM Bank undefined in this chunk of code. Ensure that bank bits are correct. Assuming bank 0 from now on.
0043   083C           00119         movf    0x3c, W                                     ; reg: 0x03c
0044   00C8           00120         movwf   0x48                                        ; reg: 0x048
0045   283A           00121         goto    label_005
                      00122 
0046                  00123 label_007:                                                  ; address: 0x0046
                      00124 
Message[1302]: RAM Bank undefined in this chunk of code. Ensure that bank bits are correct. Assuming bank 0 from now on.
0046   0841           00125         movf    0x41, W                                     ; reg: 0x041
0047   0080           00126         movwf   INDF                                        ; reg: 0x000
0048   0A84           00127         incf    FSR, F                                      ; reg: 0x004
0049   2388           00128         call    function_008
004A   2375           00129         call    function_007
004B   21FC           00130         call    function_002
004C   24AB           00131         call    function_013
004D   30EB           00132         movlw   0xeb
Message[1302]: RAM Bank undefined in this chunk of code. Ensure that bank bits are correct. Assuming bank 0 from now on.
004E   07C5           00133         addwf   0x45, F                                     ; reg: 0x045
004F   0AC5           00134         incf    0x45, F                                     ; reg: 0x045
0050   1903           00135         btfsc   STATUS, Z                                   ; reg: 0x003, bit: 2
0051   2855           00136         goto    label_008
0052   24AE           00137         call    function_014
Message[1302]: RAM Bank undefined in this chunk of code. Ensure that bank bits are correct. Assuming bank 0 from now on.
0053   0AC5           00138         incf    0x45, F                                     ; reg: 0x045
gpasm-1.5.2 #1325 (Nov 17 2022)   asmfile.asm   26/10/2023  18:12:30        PAGE  4


LOC    OBJECT CODE    LINE  SOURCE TEXT
  VALUE

0054   2830           00139         goto    label_004
                      00140 
0055                  00141 label_008:                                                  ; address: 0x0055
                      00142 
0055   21FC           00143         call    function_002
                      00144 
0056                  00145 label_009:                                                  ; address: 0x0056
                      00146 
0056   2496           00147         call    function_010
0057   248D           00148         call    function_009
Message[1302]: RAM Bank undefined in this chunk of code. Ensure that bank bits are correct. Assuming bank 0 from now on.
0058   1D43           00149         btfss   0x43, 0x2                                   ; reg: 0x043
0059   2856           00150         goto    label_009
005A   3015           00151         movlw   0x15
005B   00C5           00152         movwf   0x45                                        ; reg: 0x045
                      00153 
005C                  00154 label_010:                                                  ; address: 0x005c
                      00155 
005C   24A4           00156         call    function_012
Message[1302]: RAM Bank undefined in this chunk of code. Ensure that bank bits are correct. Assuming bank 0 from now on.
005D   03C5           00157         decf    0x45, F                                     ; reg: 0x045
005E   304A           00158         movlw   0x4a
005F   0084           00159         movwf   FSR                                         ; reg: 0x004
                      00160 
0060                  00161 label_011:                                                  ; address: 0x0060
                      00162 
0060   2248           00163         call    function_006
Message[1302]: RAM Bank undefined in this chunk of code. Ensure that bank bits are correct. Assuming bank 0 from now on.
0061   1C43           00164         btfss   0x43, 0x0                                   ; reg: 0x043
0062   2860           00165         goto    label_011
0063   09BC           00166         comf    0x3c, F                                     ; reg: 0x03c
0064   0800           00167         movf    INDF, W                                     ; reg: 0x000
0065   07BC           00168         addwf   0x3c, F                                     ; reg: 0x03c
0066   0ABC           00169         incf    0x3c, F                                     ; reg: 0x03c
0067   1903           00170         btfsc   STATUS, Z                                   ; reg: 0x003, bit: 2
0068   286F           00171         goto    label_012
0069   21C4           00172         call    function_001
006A   2388           00173         call    function_008
006B   2375           00174         call    function_007
006C   21FC           00175         call    function_002
006D   0384           00176         decf    FSR, F                                      ; reg: 0x004
006E   2875           00177         goto    label_013
                      00178 
006F                  00179 label_012:                                                  ; address: 0x006f
                      00180 
006F   0384           00181         decf    FSR, F                                      ; reg: 0x004
0070   0800           00182         movf    INDF, W                                     ; reg: 0x000
Message[1302]: RAM Bank undefined in this chunk of code. Ensure that bank bits are correct. Assuming bank 0 from now on.
0071   00C1           00183         movwf   0x41                                        ; reg: 0x041
0072   2388           00184         call    function_008
0073   2375           00185         call    function_007
0074   21FC           00186         call    function_002
                      00187 
gpasm-1.5.2 #1325 (Nov 17 2022)   asmfile.asm   26/10/2023  18:12:30        PAGE  5


LOC    OBJECT CODE    LINE  SOURCE TEXT
  VALUE

0075                  00188 label_013:                                                  ; address: 0x0075
                      00189 
Message[1302]: RAM Bank undefined in this chunk of code. Ensure that bank bits are correct. Assuming bank 0 from now on.
0075   03C5           00190         decf    0x45, F                                     ; reg: 0x045
0076   1903           00191         btfsc   STATUS, Z                                   ; reg: 0x003, bit: 2
0077   2828           00192         goto    label_003
0078   0A84           00193         incf    FSR, F                                      ; reg: 0x004
0079   0A84           00194         incf    FSR, F                                      ; reg: 0x004
007A   0A84           00195         incf    FSR, F                                      ; reg: 0x004
007B   2860           00196         goto    label_011
                      00197 
007C                  00198 label_014:                                                  ; address: 0x007c
                      00199 
007C   24B1           00200         call    function_015
                      00201 
007D                  00202 label_015:                                                  ; address: 0x007d
                      00203 
Message[1302]: RAM Bank undefined in this chunk of code. Ensure that bank bits are correct. Assuming bank 0 from now on.
007D   1008           00204         bcf     PORTD, RD0                                  ; reg: 0x008, bit: 0
007E   1488           00205         bsf     PORTD, RD1                                  ; reg: 0x008, bit: 1
007F   1508           00206         bsf     PORTD, RD2                                  ; reg: 0x008, bit: 2
0080   1806           00207         btfsc   PORTB, RB0                                  ; reg: 0x006, bit: 0
0081   288B           00208         goto    label_017
0082   0F20           00209         incfsz  0x20, W                                     ; reg: 0x020
0083   00A0           00210         movwf   0x20                                        ; reg: 0x020
0084   1FA0           00211         btfss   0x20, 0x7                                   ; reg: 0x020
0085   288B           00212         goto    label_017
0086   1507           00213         bsf     PORTC, RC2                                  ; reg: 0x007, bit: 2
0087   1688           00214         bsf     PORTD, RD5                                  ; reg: 0x008, bit: 5
                      00215 
0088                  00216 label_016:                                                  ; address: 0x0088
                      00217 
0088   1C06           00218         btfss   PORTB, RB0                                  ; reg: 0x006, bit: 0
0089   2888           00219         goto    label_016
008A   29A5           00220         goto    label_068
                      00221 
008B                  00222 label_017:                                                  ; address: 0x008b
                      00223 
Message[1302]: RAM Bank undefined in this chunk of code. Ensure that bank bits are correct. Assuming bank 0 from now on.
008B   1886           00224         btfsc   PORTB, RB1                                  ; reg: 0x006, bit: 1
008C   2896           00225         goto    label_019
008D   0F21           00226         incfsz  0x21, W                                     ; reg: 0x021
008E   00A1           00227         movwf   0x21                                        ; reg: 0x021
008F   1FA1           00228         btfss   0x21, 0x7                                   ; reg: 0x021
0090   2896           00229         goto    label_019
0091   1487           00230         bsf     PORTC, RC1                                  ; reg: 0x007, bit: 1
0092   1688           00231         bsf     PORTD, RD5                                  ; reg: 0x008, bit: 5
                      00232 
0093                  00233 label_018:                                                  ; address: 0x0093
                      00234 
0093   1C86           00235         btfss   PORTB, RB1                                  ; reg: 0x006, bit: 1
0094   2893           00236         goto    label_018
0095   29A5           00237         goto    label_068
gpasm-1.5.2 #1325 (Nov 17 2022)   asmfile.asm   26/10/2023  18:12:30        PAGE  6


LOC    OBJECT CODE    LINE  SOURCE TEXT
  VALUE

                      00238 
0096                  00239 label_019:                                                  ; address: 0x0096
                      00240 
Message[1302]: RAM Bank undefined in this chunk of code. Ensure that bank bits are correct. Assuming bank 0 from now on.
0096   1906           00241         btfsc   PORTB, RB2                                  ; reg: 0x006, bit: 2
0097   28A1           00242         goto    label_021
0098   0F22           00243         incfsz  0x22, W                                     ; reg: 0x022
0099   00A2           00244         movwf   0x22                                        ; reg: 0x022
009A   1FA2           00245         btfss   0x22, 0x7                                   ; reg: 0x022
009B   28A1           00246         goto    label_021
009C   1407           00247         bsf     PORTC, RC0                                  ; reg: 0x007, bit: 0
009D   1688           00248         bsf     PORTD, RD5                                  ; reg: 0x008, bit: 5
                      00249 
009E                  00250 label_020:                                                  ; address: 0x009e
                      00251 
009E   1D06           00252         btfss   PORTB, RB2                                  ; reg: 0x006, bit: 2
009F   289E           00253         goto    label_020
00A0   29A5           00254         goto    label_068
                      00255 
00A1                  00256 label_021:                                                  ; address: 0x00a1
                      00257 
Message[1302]: RAM Bank undefined in this chunk of code. Ensure that bank bits are correct. Assuming bank 0 from now on.
00A1   1986           00258         btfsc   PORTB, RB3                                  ; reg: 0x006, bit: 3
00A2   28AC           00259         goto    label_023
00A3   0F23           00260         incfsz  0x23, W                                     ; reg: 0x023
00A4   00A3           00261         movwf   0x23                                        ; reg: 0x023
00A5   1FA3           00262         btfss   0x23, 0x7                                   ; reg: 0x023
00A6   28AC           00263         goto    label_023
00A7   1607           00264         bsf     PORTC, RC4                                  ; reg: 0x007, bit: 4
00A8   1688           00265         bsf     PORTD, RD5                                  ; reg: 0x008, bit: 5
                      00266 
00A9                  00267 label_022:                                                  ; address: 0x00a9
                      00268 
00A9   1D86           00269         btfss   PORTB, RB3                                  ; reg: 0x006, bit: 3
00AA   28A9           00270         goto    label_022
00AB   29A5           00271         goto    label_068
                      00272 
00AC                  00273 label_023:                                                  ; address: 0x00ac
                      00274 
Message[1302]: RAM Bank undefined in this chunk of code. Ensure that bank bits are correct. Assuming bank 0 from now on.
00AC   1A06           00275         btfsc   PORTB, RB4                                  ; reg: 0x006, bit: 4
00AD   28B7           00276         goto    label_025
00AE   0F24           00277         incfsz  0x24, W                                     ; reg: 0x024
00AF   00A4           00278         movwf   0x24                                        ; reg: 0x024
00B0   1FA4           00279         btfss   0x24, 0x7                                   ; reg: 0x024
00B1   28B7           00280         goto    label_025
00B2   1687           00281         bsf     PORTC, RC5                                  ; reg: 0x007, bit: 5
00B3   1688           00282         bsf     PORTD, RD5                                  ; reg: 0x008, bit: 5
                      00283 
00B4                  00284 label_024:                                                  ; address: 0x00b4
                      00285 
00B4   1E06           00286         btfss   PORTB, RB4                                  ; reg: 0x006, bit: 4
00B5   28B4           00287         goto    label_024
gpasm-1.5.2 #1325 (Nov 17 2022)   asmfile.asm   26/10/2023  18:12:30        PAGE  7


LOC    OBJECT CODE    LINE  SOURCE TEXT
  VALUE

00B6   29A5           00288         goto    label_068
                      00289 
00B7                  00290 label_025:                                                  ; address: 0x00b7
                      00291 
Message[1302]: RAM Bank undefined in this chunk of code. Ensure that bank bits are correct. Assuming bank 0 from now on.
00B7   1A86           00292         btfsc   PORTB, RB5                                  ; reg: 0x006, bit: 5
00B8   28C2           00293         goto    label_027
00B9   0F25           00294         incfsz  0x25, W                                     ; reg: 0x025
00BA   00A5           00295         movwf   0x25                                        ; reg: 0x025
00BB   1FA5           00296         btfss   0x25, 0x7                                   ; reg: 0x025
00BC   28C2           00297         goto    label_027
00BD   1707           00298         bsf     PORTC, RC6                                  ; reg: 0x007, bit: 6
00BE   1688           00299         bsf     PORTD, RD5                                  ; reg: 0x008, bit: 5
                      00300 
00BF                  00301 label_026:                                                  ; address: 0x00bf
                      00302 
00BF   1E86           00303         btfss   PORTB, RB5                                  ; reg: 0x006, bit: 5
00C0   28BF           00304         goto    label_026
00C1   29A5           00305         goto    label_068
                      00306 
00C2                  00307 label_027:                                                  ; address: 0x00c2
                      00308 
Message[1302]: RAM Bank undefined in this chunk of code. Ensure that bank bits are correct. Assuming bank 0 from now on.
00C2   1805           00309         btfsc   PORTA, RA0                                  ; reg: 0x005, bit: 0
00C3   28CD           00310         goto    label_029
00C4   0F26           00311         incfsz  0x26, W                                     ; reg: 0x026
00C5   00A6           00312         movwf   0x26                                        ; reg: 0x026
00C6   1FA6           00313         btfss   0x26, 0x7                                   ; reg: 0x026
00C7   28CD           00314         goto    label_029
00C8   1787           00315         bsf     PORTC, RC7                                  ; reg: 0x007, bit: 7
00C9   1688           00316         bsf     PORTD, RD5                                  ; reg: 0x008, bit: 5
                      00317 
00CA                  00318 label_028:                                                  ; address: 0x00ca
                      00319 
00CA   1C05           00320         btfss   PORTA, RA0                                  ; reg: 0x005, bit: 0
00CB   28CA           00321         goto    label_028
00CC   29A5           00322         goto    label_068
                      00323 
00CD                  00324 label_029:                                                  ; address: 0x00cd
                      00325 
Message[1302]: RAM Bank undefined in this chunk of code. Ensure that bank bits are correct. Assuming bank 0 from now on.
00CD   1885           00326         btfsc   PORTA, RA1                                  ; reg: 0x005, bit: 1
00CE   28D8           00327         goto    label_031
00CF   0F27           00328         incfsz  0x27, W                                     ; reg: 0x027
00D0   00A7           00329         movwf   0x27                                        ; reg: 0x027
00D1   1FA7           00330         btfss   0x27, 0x7                                   ; reg: 0x027
00D2   28D8           00331         goto    label_031
00D3   1608           00332         bsf     PORTD, RD4                                  ; reg: 0x008, bit: 4
00D4   1688           00333         bsf     PORTD, RD5                                  ; reg: 0x008, bit: 5
                      00334 
00D5                  00335 label_030:                                                  ; address: 0x00d5
                      00336 
00D5   1C85           00337         btfss   PORTA, RA1                                  ; reg: 0x005, bit: 1
gpasm-1.5.2 #1325 (Nov 17 2022)   asmfile.asm   26/10/2023  18:12:30        PAGE  8


LOC    OBJECT CODE    LINE  SOURCE TEXT
  VALUE

00D6   28D5           00338         goto    label_030
00D7   29A5           00339         goto    label_068
                      00340 
00D8                  00341 label_031:                                                  ; address: 0x00d8
                      00342 
Message[1302]: RAM Bank undefined in this chunk of code. Ensure that bank bits are correct. Assuming bank 0 from now on.
00D8   1905           00343         btfsc   PORTA, RA2                                  ; reg: 0x005, bit: 2
00D9   28E3           00344         goto    label_033
00DA   0F28           00345         incfsz  0x28, W                                     ; reg: 0x028
00DB   00A8           00346         movwf   0x28                                        ; reg: 0x028
00DC   1FA8           00347         btfss   0x28, 0x7                                   ; reg: 0x028
00DD   28E3           00348         goto    label_033
00DE   1587           00349         bsf     PORTC, RC3                                  ; reg: 0x007, bit: 3
00DF   1688           00350         bsf     PORTD, RD5                                  ; reg: 0x008, bit: 5
                      00351 
00E0                  00352 label_032:                                                  ; address: 0x00e0
                      00353 
00E0   1D05           00354         btfss   PORTA, RA2                                  ; reg: 0x005, bit: 2
00E1   28E0           00355         goto    label_032
00E2   29A5           00356         goto    label_068
                      00357 
00E3                  00358 label_033:                                                  ; address: 0x00e3
                      00359 
Message[1302]: RAM Bank undefined in this chunk of code. Ensure that bank bits are correct. Assuming bank 0 from now on.
00E3   1408           00360         bsf     PORTD, RD0                                  ; reg: 0x008, bit: 0
00E4   1088           00361         bcf     PORTD, RD1                                  ; reg: 0x008, bit: 1
00E5   1508           00362         bsf     PORTD, RD2                                  ; reg: 0x008, bit: 2
00E6   1886           00363         btfsc   PORTB, RB1                                  ; reg: 0x006, bit: 1
00E7   28F1           00364         goto    label_035
00E8   0F29           00365         incfsz  0x29, W                                     ; reg: 0x029
00E9   00A9           00366         movwf   0x29                                        ; reg: 0x029
00EA   1FA9           00367         btfss   0x29, 0x7                                   ; reg: 0x029
00EB   28F1           00368         goto    label_035
00EC   1507           00369         bsf     PORTC, RC2                                  ; reg: 0x007, bit: 2
00ED   1708           00370         bsf     PORTD, RD6                                  ; reg: 0x008, bit: 6
                      00371 
00EE                  00372 label_034:                                                  ; address: 0x00ee
                      00373 
00EE   1C86           00374         btfss   PORTB, RB1                                  ; reg: 0x006, bit: 1
00EF   28EE           00375         goto    label_034
00F0   29A5           00376         goto    label_068
                      00377 
00F1                  00378 label_035:                                                  ; address: 0x00f1
                      00379 
Message[1302]: RAM Bank undefined in this chunk of code. Ensure that bank bits are correct. Assuming bank 0 from now on.
00F1   1906           00380         btfsc   PORTB, RB2                                  ; reg: 0x006, bit: 2
00F2   28FC           00381         goto    label_037
00F3   0F2A           00382         incfsz  0x2a, W                                     ; reg: 0x02a
00F4   00AA           00383         movwf   0x2a                                        ; reg: 0x02a
00F5   1FAA           00384         btfss   0x2a, 0x7                                   ; reg: 0x02a
00F6   28FC           00385         goto    label_037
00F7   1487           00386         bsf     PORTC, RC1                                  ; reg: 0x007, bit: 1
00F8   1708           00387         bsf     PORTD, RD6                                  ; reg: 0x008, bit: 6
gpasm-1.5.2 #1325 (Nov 17 2022)   asmfile.asm   26/10/2023  18:12:30        PAGE  9


LOC    OBJECT CODE    LINE  SOURCE TEXT
  VALUE

                      00388 
00F9                  00389 label_036:                                                  ; address: 0x00f9
                      00390 
00F9   1D06           00391         btfss   PORTB, RB2                                  ; reg: 0x006, bit: 2
00FA   28F9           00392         goto    label_036
00FB   29A5           00393         goto    label_068
                      00394 
00FC                  00395 label_037:                                                  ; address: 0x00fc
                      00396 
Message[1302]: RAM Bank undefined in this chunk of code. Ensure that bank bits are correct. Assuming bank 0 from now on.
00FC   1986           00397         btfsc   PORTB, RB3                                  ; reg: 0x006, bit: 3
00FD   2907           00398         goto    label_039
00FE   0F2B           00399         incfsz  0x2b, W                                     ; reg: 0x02b
00FF   00AB           00400         movwf   0x2b                                        ; reg: 0x02b
0100   1FAB           00401         btfss   0x2b, 0x7                                   ; reg: 0x02b
0101   2907           00402         goto    label_039
0102   1407           00403         bsf     PORTC, RC0                                  ; reg: 0x007, bit: 0
0103   1708           00404         bsf     PORTD, RD6                                  ; reg: 0x008, bit: 6
                      00405 
0104                  00406 label_038:                                                  ; address: 0x0104
                      00407 
0104   1D86           00408         btfss   PORTB, RB3                                  ; reg: 0x006, bit: 3
0105   2904           00409         goto    label_038
0106   29A5           00410         goto    label_068
                      00411 
0107                  00412 label_039:                                                  ; address: 0x0107
                      00413 
Message[1302]: RAM Bank undefined in this chunk of code. Ensure that bank bits are correct. Assuming bank 0 from now on.
0107   1A06           00414         btfsc   PORTB, RB4                                  ; reg: 0x006, bit: 4
0108   2912           00415         goto    label_041
0109   0F2C           00416         incfsz  0x2c, W                                     ; reg: 0x02c
010A   00AC           00417         movwf   0x2c                                        ; reg: 0x02c
010B   1FAC           00418         btfss   0x2c, 0x7                                   ; reg: 0x02c
010C   2912           00419         goto    label_041
010D   1607           00420         bsf     PORTC, RC4                                  ; reg: 0x007, bit: 4
010E   1708           00421         bsf     PORTD, RD6                                  ; reg: 0x008, bit: 6
                      00422 
010F                  00423 label_040:                                                  ; address: 0x010f
                      00424 
010F   1E06           00425         btfss   PORTB, RB4                                  ; reg: 0x006, bit: 4
0110   290F           00426         goto    label_040
0111   29A5           00427         goto    label_068
                      00428 
0112                  00429 label_041:                                                  ; address: 0x0112
                      00430 
Message[1302]: RAM Bank undefined in this chunk of code. Ensure that bank bits are correct. Assuming bank 0 from now on.
0112   1A86           00431         btfsc   PORTB, RB5                                  ; reg: 0x006, bit: 5
0113   291D           00432         goto    label_043
0114   0F2D           00433         incfsz  0x2d, W                                     ; reg: 0x02d
0115   00AD           00434         movwf   0x2d                                        ; reg: 0x02d
0116   1FAD           00435         btfss   0x2d, 0x7                                   ; reg: 0x02d
0117   291D           00436         goto    label_043
0118   1687           00437         bsf     PORTC, RC5                                  ; reg: 0x007, bit: 5
gpasm-1.5.2 #1325 (Nov 17 2022)   asmfile.asm   26/10/2023  18:12:30        PAGE 10


LOC    OBJECT CODE    LINE  SOURCE TEXT
  VALUE

0119   1708           00438         bsf     PORTD, RD6                                  ; reg: 0x008, bit: 6
                      00439 
011A                  00440 label_042:                                                  ; address: 0x011a
                      00441 
011A   1E86           00442         btfss   PORTB, RB5                                  ; reg: 0x006, bit: 5
011B   291A           00443         goto    label_042
011C   29A5           00444         goto    label_068
                      00445 
011D                  00446 label_043:                                                  ; address: 0x011d
                      00447 
Message[1302]: RAM Bank undefined in this chunk of code. Ensure that bank bits are correct. Assuming bank 0 from now on.
011D   1805           00448         btfsc   PORTA, RA0                                  ; reg: 0x005, bit: 0
011E   2928           00449         goto    label_045
011F   0F2E           00450         incfsz  0x2e, W                                     ; reg: 0x02e
0120   00AE           00451         movwf   0x2e                                        ; reg: 0x02e
0121   1FAE           00452         btfss   0x2e, 0x7                                   ; reg: 0x02e
0122   2928           00453         goto    label_045
0123   1707           00454         bsf     PORTC, RC6                                  ; reg: 0x007, bit: 6
0124   1708           00455         bsf     PORTD, RD6                                  ; reg: 0x008, bit: 6
                      00456 
0125                  00457 label_044:                                                  ; address: 0x0125
                      00458 
0125   1C05           00459         btfss   PORTA, RA0                                  ; reg: 0x005, bit: 0
0126   2925           00460         goto    label_044
0127   29A5           00461         goto    label_068
                      00462 
0128                  00463 label_045:                                                  ; address: 0x0128
                      00464 
Message[1302]: RAM Bank undefined in this chunk of code. Ensure that bank bits are correct. Assuming bank 0 from now on.
0128   1885           00465         btfsc   PORTA, RA1                                  ; reg: 0x005, bit: 1
0129   2933           00466         goto    label_047
012A   0F2F           00467         incfsz  0x2f, W                                     ; reg: 0x02f
012B   00AF           00468         movwf   0x2f                                        ; reg: 0x02f
012C   1FAF           00469         btfss   0x2f, 0x7                                   ; reg: 0x02f
012D   2933           00470         goto    label_047
012E   1787           00471         bsf     PORTC, RC7                                  ; reg: 0x007, bit: 7
012F   1708           00472         bsf     PORTD, RD6                                  ; reg: 0x008, bit: 6
                      00473 
0130                  00474 label_046:                                                  ; address: 0x0130
                      00475 
0130   1C85           00476         btfss   PORTA, RA1                                  ; reg: 0x005, bit: 1
0131   2930           00477         goto    label_046
0132   29A5           00478         goto    label_068
                      00479 
0133                  00480 label_047:                                                  ; address: 0x0133
                      00481 
Message[1302]: RAM Bank undefined in this chunk of code. Ensure that bank bits are correct. Assuming bank 0 from now on.
0133   1905           00482         btfsc   PORTA, RA2                                  ; reg: 0x005, bit: 2
0134   293E           00483         goto    label_049
0135   0F30           00484         incfsz  0x30, W                                     ; reg: 0x030
0136   00B0           00485         movwf   0x30                                        ; reg: 0x030
0137   1FB0           00486         btfss   0x30, 0x7                                   ; reg: 0x030
0138   293E           00487         goto    label_049
gpasm-1.5.2 #1325 (Nov 17 2022)   asmfile.asm   26/10/2023  18:12:30        PAGE 11


LOC    OBJECT CODE    LINE  SOURCE TEXT
  VALUE

0139   1608           00488         bsf     PORTD, RD4                                  ; reg: 0x008, bit: 4
013A   1708           00489         bsf     PORTD, RD6                                  ; reg: 0x008, bit: 6
                      00490 
013B                  00491 label_048:                                                  ; address: 0x013b
                      00492 
013B   1D05           00493         btfss   PORTA, RA2                                  ; reg: 0x005, bit: 2
013C   293B           00494         goto    label_048
013D   29A5           00495         goto    label_068
                      00496 
013E                  00497 label_049:                                                  ; address: 0x013e
                      00498 
Message[1302]: RAM Bank undefined in this chunk of code. Ensure that bank bits are correct. Assuming bank 0 from now on.
013E   1408           00499         bsf     PORTD, RD0                                  ; reg: 0x008, bit: 0
013F   1488           00500         bsf     PORTD, RD1                                  ; reg: 0x008, bit: 1
0140   1108           00501         bcf     PORTD, RD2                                  ; reg: 0x008, bit: 2
0141   1806           00502         btfsc   PORTB, RB0                                  ; reg: 0x006, bit: 0
0142   294C           00503         goto    label_051
0143   0F31           00504         incfsz  0x31, W                                     ; reg: 0x031
0144   00B1           00505         movwf   0x31                                        ; reg: 0x031
0145   1FB1           00506         btfss   0x31, 0x7                                   ; reg: 0x031
0146   294C           00507         goto    label_051
0147   1507           00508         bsf     PORTC, RC2                                  ; reg: 0x007, bit: 2
0148   1788           00509         bsf     PORTD, RD7                                  ; reg: 0x008, bit: 7
                      00510 
0149                  00511 label_050:                                                  ; address: 0x0149
                      00512 
0149   1C06           00513         btfss   PORTB, RB0                                  ; reg: 0x006, bit: 0
014A   2949           00514         goto    label_050
014B   29A5           00515         goto    label_068
                      00516 
014C                  00517 label_051:                                                  ; address: 0x014c
                      00518 
Message[1302]: RAM Bank undefined in this chunk of code. Ensure that bank bits are correct. Assuming bank 0 from now on.
014C   1886           00519         btfsc   PORTB, RB1                                  ; reg: 0x006, bit: 1
014D   2957           00520         goto    label_053
014E   0F32           00521         incfsz  0x32, W                                     ; reg: 0x032
014F   00B2           00522         movwf   0x32                                        ; reg: 0x032
0150   1FB2           00523         btfss   0x32, 0x7                                   ; reg: 0x032
0151   2957           00524         goto    label_053
0152   1487           00525         bsf     PORTC, RC1                                  ; reg: 0x007, bit: 1
0153   1788           00526         bsf     PORTD, RD7                                  ; reg: 0x008, bit: 7
                      00527 
0154                  00528 label_052:                                                  ; address: 0x0154
                      00529 
0154   1C86           00530         btfss   PORTB, RB1                                  ; reg: 0x006, bit: 1
0155   2954           00531         goto    label_052
0156   29A5           00532         goto    label_068
                      00533 
0157                  00534 label_053:                                                  ; address: 0x0157
                      00535 
Message[1302]: RAM Bank undefined in this chunk of code. Ensure that bank bits are correct. Assuming bank 0 from now on.
0157   1906           00536         btfsc   PORTB, RB2                                  ; reg: 0x006, bit: 2
0158   2962           00537         goto    label_055
gpasm-1.5.2 #1325 (Nov 17 2022)   asmfile.asm   26/10/2023  18:12:30        PAGE 12


LOC    OBJECT CODE    LINE  SOURCE TEXT
  VALUE

0159   0F33           00538         incfsz  0x33, W                                     ; reg: 0x033
015A   00B3           00539         movwf   0x33                                        ; reg: 0x033
015B   1FB3           00540         btfss   0x33, 0x7                                   ; reg: 0x033
015C   2962           00541         goto    label_055
015D   1407           00542         bsf     PORTC, RC0                                  ; reg: 0x007, bit: 0
015E   1788           00543         bsf     PORTD, RD7                                  ; reg: 0x008, bit: 7
                      00544 
015F                  00545 label_054:                                                  ; address: 0x015f
                      00546 
015F   1D06           00547         btfss   PORTB, RB2                                  ; reg: 0x006, bit: 2
0160   295F           00548         goto    label_054
0161   29A5           00549         goto    label_068
                      00550 
0162                  00551 label_055:                                                  ; address: 0x0162
                      00552 
Message[1302]: RAM Bank undefined in this chunk of code. Ensure that bank bits are correct. Assuming bank 0 from now on.
0162   1986           00553         btfsc   PORTB, RB3                                  ; reg: 0x006, bit: 3
0163   296D           00554         goto    label_057
0164   0F34           00555         incfsz  0x34, W                                     ; reg: 0x034
0165   00B4           00556         movwf   0x34                                        ; reg: 0x034
0166   1FB4           00557         btfss   0x34, 0x7                                   ; reg: 0x034
0167   296D           00558         goto    label_057
0168   1607           00559         bsf     PORTC, RC4                                  ; reg: 0x007, bit: 4
0169   1788           00560         bsf     PORTD, RD7                                  ; reg: 0x008, bit: 7
                      00561 
016A                  00562 label_056:                                                  ; address: 0x016a
                      00563 
016A   1D86           00564         btfss   PORTB, RB3                                  ; reg: 0x006, bit: 3
016B   296A           00565         goto    label_056
016C   29A5           00566         goto    label_068
                      00567 
016D                  00568 label_057:                                                  ; address: 0x016d
                      00569 
Message[1302]: RAM Bank undefined in this chunk of code. Ensure that bank bits are correct. Assuming bank 0 from now on.
016D   1A06           00570         btfsc   PORTB, RB4                                  ; reg: 0x006, bit: 4
016E   2978           00571         goto    label_059
016F   0F35           00572         incfsz  0x35, W                                     ; reg: 0x035
0170   00B5           00573         movwf   0x35                                        ; reg: 0x035
0171   1FB5           00574         btfss   0x35, 0x7                                   ; reg: 0x035
0172   2978           00575         goto    label_059
0173   1687           00576         bsf     PORTC, RC5                                  ; reg: 0x007, bit: 5
0174   1788           00577         bsf     PORTD, RD7                                  ; reg: 0x008, bit: 7
                      00578 
0175                  00579 label_058:                                                  ; address: 0x0175
                      00580 
0175   1E06           00581         btfss   PORTB, RB4                                  ; reg: 0x006, bit: 4
0176   2975           00582         goto    label_058
0177   29A5           00583         goto    label_068
                      00584 
0178                  00585 label_059:                                                  ; address: 0x0178
                      00586 
Message[1302]: RAM Bank undefined in this chunk of code. Ensure that bank bits are correct. Assuming bank 0 from now on.
0178   1A86           00587         btfsc   PORTB, RB5                                  ; reg: 0x006, bit: 5
gpasm-1.5.2 #1325 (Nov 17 2022)   asmfile.asm   26/10/2023  18:12:30        PAGE 13


LOC    OBJECT CODE    LINE  SOURCE TEXT
  VALUE

0179   2983           00588         goto    label_061
017A   0F36           00589         incfsz  0x36, W                                     ; reg: 0x036
017B   00B6           00590         movwf   0x36                                        ; reg: 0x036
017C   1FB6           00591         btfss   0x36, 0x7                                   ; reg: 0x036
017D   2983           00592         goto    label_061
017E   1707           00593         bsf     PORTC, RC6                                  ; reg: 0x007, bit: 6
017F   1788           00594         bsf     PORTD, RD7                                  ; reg: 0x008, bit: 7
                      00595 
0180                  00596 label_060:                                                  ; address: 0x0180
                      00597 
0180   1E86           00598         btfss   PORTB, RB5                                  ; reg: 0x006, bit: 5
0181   2980           00599         goto    label_060
0182   29A5           00600         goto    label_068
                      00601 
0183                  00602 label_061:                                                  ; address: 0x0183
                      00603 
Message[1302]: RAM Bank undefined in this chunk of code. Ensure that bank bits are correct. Assuming bank 0 from now on.
0183   1805           00604         btfsc   PORTA, RA0                                  ; reg: 0x005, bit: 0
0184   298E           00605         goto    label_063
0185   0F37           00606         incfsz  0x37, W                                     ; reg: 0x037
0186   00B7           00607         movwf   0x37                                        ; reg: 0x037
0187   1FB7           00608         btfss   0x37, 0x7                                   ; reg: 0x037
0188   298E           00609         goto    label_063
0189   1787           00610         bsf     PORTC, RC7                                  ; reg: 0x007, bit: 7
018A   1788           00611         bsf     PORTD, RD7                                  ; reg: 0x008, bit: 7
                      00612 
018B                  00613 label_062:                                                  ; address: 0x018b
                      00614 
018B   1C05           00615         btfss   PORTA, RA0                                  ; reg: 0x005, bit: 0
018C   298B           00616         goto    label_062
018D   29A5           00617         goto    label_068
                      00618 
018E                  00619 label_063:                                                  ; address: 0x018e
                      00620 
Message[1302]: RAM Bank undefined in this chunk of code. Ensure that bank bits are correct. Assuming bank 0 from now on.
018E   1885           00621         btfsc   PORTA, RA1                                  ; reg: 0x005, bit: 1
018F   2999           00622         goto    label_065
0190   0F38           00623         incfsz  0x38, W                                     ; reg: 0x038
0191   00B8           00624         movwf   0x38                                        ; reg: 0x038
0192   1FB8           00625         btfss   0x38, 0x7                                   ; reg: 0x038
0193   2999           00626         goto    label_065
0194   1608           00627         bsf     PORTD, RD4                                  ; reg: 0x008, bit: 4
0195   1788           00628         bsf     PORTD, RD7                                  ; reg: 0x008, bit: 7
                      00629 
0196                  00630 label_064:                                                  ; address: 0x0196
                      00631 
0196   1C85           00632         btfss   PORTA, RA1                                  ; reg: 0x005, bit: 1
0197   2996           00633         goto    label_064
0198   29A5           00634         goto    label_068
                      00635 
0199                  00636 label_065:                                                  ; address: 0x0199
                      00637 
Message[1302]: RAM Bank undefined in this chunk of code. Ensure that bank bits are correct. Assuming bank 0 from now on.
gpasm-1.5.2 #1325 (Nov 17 2022)   asmfile.asm   26/10/2023  18:12:30        PAGE 14


LOC    OBJECT CODE    LINE  SOURCE TEXT
  VALUE

0199   1905           00638         btfsc   PORTA, RA2                                  ; reg: 0x005, bit: 2
019A   29A4           00639         goto    label_067
019B   0F39           00640         incfsz  0x39, W                                     ; reg: 0x039
019C   00B9           00641         movwf   0x39                                        ; reg: 0x039
019D   1FB9           00642         btfss   0x39, 0x7                                   ; reg: 0x039
019E   29A4           00643         goto    label_067
019F   1587           00644         bsf     PORTC, RC3                                  ; reg: 0x007, bit: 3
01A0   1788           00645         bsf     PORTD, RD7                                  ; reg: 0x008, bit: 7
                      00646 
01A1                  00647 label_066:                                                  ; address: 0x01a1
                      00648 
01A1   1D05           00649         btfss   PORTA, RA2                                  ; reg: 0x005, bit: 2
01A2   29A1           00650         goto    label_066
01A3   29A5           00651         goto    label_068
                      00652 
01A4                  00653 label_067:                                                  ; address: 0x01a4
                      00654 
01A4   287D           00655         goto    label_015
                      00656 
01A5                  00657 label_068:                                                  ; address: 0x01a5
                      00658 
01A5   21FC           00659         call    function_002
01A6   21A8           00660         call    function_000
01A7   287D           00661         goto    label_015
                      00662 
01A8                  00663 function_000:                                               ; address: 0x01a8
                      00664 
Message[1302]: RAM Bank undefined in this chunk of code. Ensure that bank bits are correct. Assuming bank 0 from now on.
01A8   01A0           00665         clrf    0x20                                        ; reg: 0x020
01A9   01A1           00666         clrf    0x21                                        ; reg: 0x021
01AA   01A2           00667         clrf    0x22                                        ; reg: 0x022
01AB   01A3           00668         clrf    0x23                                        ; reg: 0x023
01AC   01A4           00669         clrf    0x24                                        ; reg: 0x024
01AD   01A5           00670         clrf    0x25                                        ; reg: 0x025
01AE   01A6           00671         clrf    0x26                                        ; reg: 0x026
01AF   01A7           00672         clrf    0x27                                        ; reg: 0x027
01B0   01A8           00673         clrf    0x28                                        ; reg: 0x028
01B1   01A9           00674         clrf    0x29                                        ; reg: 0x029
01B2   01AA           00675         clrf    0x2a                                        ; reg: 0x02a
01B3   01AB           00676         clrf    0x2b                                        ; reg: 0x02b
01B4   01AC           00677         clrf    0x2c                                        ; reg: 0x02c
01B5   01AD           00678         clrf    0x2d                                        ; reg: 0x02d
01B6   01AE           00679         clrf    0x2e                                        ; reg: 0x02e
01B7   01AF           00680         clrf    0x2f                                        ; reg: 0x02f
01B8   01B0           00681         clrf    0x30                                        ; reg: 0x030
01B9   01B1           00682         clrf    0x31                                        ; reg: 0x031
01BA   01B2           00683         clrf    0x32                                        ; reg: 0x032
01BB   01B3           00684         clrf    0x33                                        ; reg: 0x033
01BC   01B4           00685         clrf    0x34                                        ; reg: 0x034
01BD   01B5           00686         clrf    0x35                                        ; reg: 0x035
01BE   01B6           00687         clrf    0x36                                        ; reg: 0x036
01BF   01B7           00688         clrf    0x37                                        ; reg: 0x037
01C0   01B8           00689         clrf    0x38                                        ; reg: 0x038
gpasm-1.5.2 #1325 (Nov 17 2022)   asmfile.asm   26/10/2023  18:12:30        PAGE 15


LOC    OBJECT CODE    LINE  SOURCE TEXT
  VALUE

01C1   01B9           00690         clrf    0x39                                        ; reg: 0x039
01C2   01BA           00691         clrf    0x3a                                        ; reg: 0x03a
01C3   0008           00692         return
                      00693 
01C4                  00694 function_001:                                               ; address: 0x01c4
                      00695 
Message[1302]: RAM Bank undefined in this chunk of code. Ensure that bank bits are correct. Assuming bank 0 from now on.
01C4   0801           00696         movf    TMR0, W                                     ; reg: 0x001
01C5   00C1           00697         movwf   0x41                                        ; reg: 0x041
01C6   301F           00698         movlw   0x1f
01C7   0541           00699         andwf   0x41, W                                     ; reg: 0x041
01C8   00C1           00700         movwf   0x41                                        ; reg: 0x041
01C9   3EE6           00701         addlw   0xe6
01CA   1803           00702         btfsc   STATUS, C                                   ; reg: 0x003, bit: 0
01CB   29CD           00703         goto    label_069
01CC   29D2           00704         goto    label_070
                      00705 
01CD                  00706 label_069:                                                  ; address: 0x01cd
                      00707 
01CD   29C4           00708         goto    function_001
Message[1302]: RAM Bank undefined in this chunk of code. Ensure that bank bits are correct. Assuming bank 0 from now on.
01CE   00C1           00709         movwf   0x41                                        ; reg: 0x041
01CF   09C1           00710         comf    0x41, F                                     ; reg: 0x041
01D0   30E0           00711         movlw   0xe0
01D1   05C1           00712         andwf   0x41, F                                     ; reg: 0x041
                      00713 
01D2                  00714 label_070:                                                  ; address: 0x01d2
                      00715 
01D2   0841           00716         movf    0x41, W                                     ; reg: 0x041
01D3   1903           00717         btfsc   STATUS, Z                                   ; reg: 0x003, bit: 2
01D4   29C4           00718         goto    function_001
01D5   0008           00719         return
Message[1302]: RAM Bank undefined in this chunk of code. Ensure that bank bits are correct. Assuming bank 0 from now on.
01D6   1507           00720         bsf     PORTC, RC2                                  ; reg: 0x007, bit: 2
01D7   1708           00721         bsf     PORTD, RD6                                  ; reg: 0x008, bit: 6
01D8   220C           00722         call    function_003
Message[1302]: RAM Bank undefined in this chunk of code. Ensure that bank bits are correct. Assuming bank 0 from now on.
01D9   1107           00723         bcf     PORTC, RC2                                  ; reg: 0x007, bit: 2
01DA   1308           00724         bcf     PORTD, RD6                                  ; reg: 0x008, bit: 6
01DB   220C           00725         call    function_003
                      00726 
01DC                  00727 label_071:                                                  ; address: 0x01dc
                      00728 
Message[1302]: RAM Bank undefined in this chunk of code. Ensure that bank bits are correct. Assuming bank 0 from now on.
01DC   1507           00729         bsf     PORTC, RC2                                  ; reg: 0x007, bit: 2
01DD   1688           00730         bsf     PORTD, RD5                                  ; reg: 0x008, bit: 5
01DE   220C           00731         call    function_003
Message[1302]: RAM Bank undefined in this chunk of code. Ensure that bank bits are correct. Assuming bank 0 from now on.
01DF   1107           00732         bcf     PORTC, RC2                                  ; reg: 0x007, bit: 2
01E0   1288           00733         bcf     PORTD, RD5                                  ; reg: 0x008, bit: 5
01E1   220C           00734         call    function_003
01E2   220C           00735         call    function_003
Message[1302]: RAM Bank undefined in this chunk of code. Ensure that bank bits are correct. Assuming bank 0 from now on.
gpasm-1.5.2 #1325 (Nov 17 2022)   asmfile.asm   26/10/2023  18:12:30        PAGE 16


LOC    OBJECT CODE    LINE  SOURCE TEXT
  VALUE

01E3   1487           00736         bsf     PORTC, RC1                                  ; reg: 0x007, bit: 1
01E4   1688           00737         bsf     PORTD, RD5                                  ; reg: 0x008, bit: 5
01E5   220C           00738         call    function_003
Message[1302]: RAM Bank undefined in this chunk of code. Ensure that bank bits are correct. Assuming bank 0 from now on.
01E6   1087           00739         bcf     PORTC, RC1                                  ; reg: 0x007, bit: 1
01E7   1288           00740         bcf     PORTD, RD5                                  ; reg: 0x008, bit: 5
01E8   220C           00741         call    function_003
Message[1302]: RAM Bank undefined in this chunk of code. Ensure that bank bits are correct. Assuming bank 0 from now on.
01E9   1407           00742         bsf     PORTC, RC0                                  ; reg: 0x007, bit: 0
01EA   1688           00743         bsf     PORTD, RD5                                  ; reg: 0x008, bit: 5
01EB   220C           00744         call    function_003
Message[1302]: RAM Bank undefined in this chunk of code. Ensure that bank bits are correct. Assuming bank 0 from now on.
01EC   1007           00745         bcf     PORTC, RC0                                  ; reg: 0x007, bit: 0
01ED   1288           00746         bcf     PORTD, RD5                                  ; reg: 0x008, bit: 5
01EE   220C           00747         call    function_003
Message[1302]: RAM Bank undefined in this chunk of code. Ensure that bank bits are correct. Assuming bank 0 from now on.
01EF   1608           00748         bsf     PORTD, RD4                                  ; reg: 0x008, bit: 4
01F0   1688           00749         bsf     PORTD, RD5                                  ; reg: 0x008, bit: 5
01F1   220C           00750         call    function_003
Message[1302]: RAM Bank undefined in this chunk of code. Ensure that bank bits are correct. Assuming bank 0 from now on.
01F2   1208           00751         bcf     PORTD, RD4                                  ; reg: 0x008, bit: 4
01F3   1288           00752         bcf     PORTD, RD5                                  ; reg: 0x008, bit: 5
01F4   220C           00753         call    function_003
Message[1302]: RAM Bank undefined in this chunk of code. Ensure that bank bits are correct. Assuming bank 0 from now on.
01F5   1687           00754         bsf     PORTC, RC5                                  ; reg: 0x007, bit: 5
01F6   1688           00755         bsf     PORTD, RD5                                  ; reg: 0x008, bit: 5
01F7   220C           00756         call    function_003
Message[1302]: RAM Bank undefined in this chunk of code. Ensure that bank bits are correct. Assuming bank 0 from now on.
01F8   1287           00757         bcf     PORTC, RC5                                  ; reg: 0x007, bit: 5
01F9   1288           00758         bcf     PORTD, RD5                                  ; reg: 0x008, bit: 5
01FA   220C           00759         call    function_003
01FB   29DC           00760         goto    label_071
                      00761 
01FC                  00762 function_002:                                               ; address: 0x01fc
                      00763 
Message[1302]: RAM Bank undefined in this chunk of code. Ensure that bank bits are correct. Assuming bank 0 from now on.
01FC   0188           00764         clrf    PORTD                                       ; reg: 0x008
01FD   0187           00765         clrf    PORTC                                       ; reg: 0x007
01FE   0008           00766         return
Message[1302]: RAM Bank undefined in this chunk of code. Ensure that bank bits are correct. Assuming bank 0 from now on.
01FF   1008           00767         bcf     PORTD, RD0                                  ; reg: 0x008, bit: 0
0200   1088           00768         bcf     PORTD, RD1                                  ; reg: 0x008, bit: 1
0201   1108           00769         bcf     PORTD, RD2                                  ; reg: 0x008, bit: 2
0202   1107           00770         bcf     PORTC, RC2                                  ; reg: 0x007, bit: 2
0203   1087           00771         bcf     PORTC, RC1                                  ; reg: 0x007, bit: 1
0204   1007           00772         bcf     PORTC, RC0                                  ; reg: 0x007, bit: 0
0205   1208           00773         bcf     PORTD, RD4                                  ; reg: 0x008, bit: 4
0206   1287           00774         bcf     PORTC, RC5                                  ; reg: 0x007, bit: 5
0207   1307           00775         bcf     PORTC, RC6                                  ; reg: 0x007, bit: 6
0208   1387           00776         bcf     PORTC, RC7                                  ; reg: 0x007, bit: 7
0209   1207           00777         bcf     PORTC, RC4                                  ; reg: 0x007, bit: 4
020A   1187           00778         bcf     PORTC, RC3                                  ; reg: 0x007, bit: 3
020B   0008           00779         return
gpasm-1.5.2 #1325 (Nov 17 2022)   asmfile.asm   26/10/2023  18:12:30        PAGE 17


LOC    OBJECT CODE    LINE  SOURCE TEXT
  VALUE

                      00780 
020C                  00781 function_003:                                               ; address: 0x020c
                      00782 
020C   3064           00783         movlw   0x64
Message[1302]: RAM Bank undefined in this chunk of code. Ensure that bank bits are correct. Assuming bank 0 from now on.
020D   00BF           00784         movwf   0x3f                                        ; reg: 0x03f
                      00785 
020E                  00786 label_072:                                                  ; address: 0x020e
                      00787 
020E   3028           00788         movlw   0x28
020F   00BE           00789         movwf   0x3e                                        ; reg: 0x03e
                      00790 
0210                  00791 label_073:                                                  ; address: 0x0210
                      00792 
0210   3028           00793         movlw   0x28
0211   00BD           00794         movwf   0x3d                                        ; reg: 0x03d
                      00795 
0212                  00796 label_074:                                                  ; address: 0x0212
                      00797 
0212   0BBD           00798         decfsz  0x3d, F                                     ; reg: 0x03d
0213   2A12           00799         goto    label_074
0214   0BBE           00800         decfsz  0x3e, F                                     ; reg: 0x03e
0215   2A10           00801         goto    label_073
0216   0BBF           00802         decfsz  0x3f, F                                     ; reg: 0x03f
0217   2A0E           00803         goto    label_072
0218   0008           00804         return
                      00805 
0219                  00806 function_004:                                               ; address: 0x0219
                      00807 
0219   300A           00808         movlw   0x0a
Message[1302]: RAM Bank undefined in this chunk of code. Ensure that bank bits are correct. Assuming bank 0 from now on.
021A   00BF           00809         movwf   0x3f                                        ; reg: 0x03f
                      00810 
021B                  00811 label_075:                                                  ; address: 0x021b
                      00812 
021B   3028           00813         movlw   0x28
021C   00BE           00814         movwf   0x3e                                        ; reg: 0x03e
                      00815 
021D                  00816 label_076:                                                  ; address: 0x021d
                      00817 
021D   3028           00818         movlw   0x28
021E   00BD           00819         movwf   0x3d                                        ; reg: 0x03d
                      00820 
021F                  00821 label_077:                                                  ; address: 0x021f
                      00822 
021F   0BBD           00823         decfsz  0x3d, F                                     ; reg: 0x03d
0220   2A1F           00824         goto    label_077
0221   0BBE           00825         decfsz  0x3e, F                                     ; reg: 0x03e
0222   2A1D           00826         goto    label_076
0223   0BBF           00827         decfsz  0x3f, F                                     ; reg: 0x03f
0224   2A1B           00828         goto    label_075
0225   0008           00829         return
                      00830 
gpasm-1.5.2 #1325 (Nov 17 2022)   asmfile.asm   26/10/2023  18:12:30        PAGE 18


LOC    OBJECT CODE    LINE  SOURCE TEXT
  VALUE

0226                  00831 function_005:                                               ; address: 0x0226
                      00832 
0226   302D           00833         movlw   0x2d
Message[1302]: RAM Bank undefined in this chunk of code. Ensure that bank bits are correct. Assuming bank 0 from now on.
0227   00BF           00834         movwf   0x3f                                        ; reg: 0x03f
                      00835 
0228                  00836 label_078:                                                  ; address: 0x0228
                      00837 
0228   3028           00838         movlw   0x28
0229   00BE           00839         movwf   0x3e                                        ; reg: 0x03e
                      00840 
022A                  00841 label_079:                                                  ; address: 0x022a
                      00842 
022A   3028           00843         movlw   0x28
022B   00BD           00844         movwf   0x3d                                        ; reg: 0x03d
                      00845 
022C                  00846 label_080:                                                  ; address: 0x022c
                      00847 
022C   0BBD           00848         decfsz  0x3d, F                                     ; reg: 0x03d
022D   2A2C           00849         goto    label_080
022E   0BBE           00850         decfsz  0x3e, F                                     ; reg: 0x03e
022F   2A2A           00851         goto    label_079
0230   0BBF           00852         decfsz  0x3f, F                                     ; reg: 0x03f
0231   2A28           00853         goto    label_078
0232   0008           00854         return
                      00855 
0233                  00856 label_081:                                                  ; address: 0x0233
                      00857 
Message[1302]: RAM Bank undefined in this chunk of code. Ensure that bank bits are correct. Assuming bank 0 from now on.
0233   1507           00858         bsf     PORTC, RC2                                  ; reg: 0x007, bit: 2
0234   1788           00859         bsf     PORTD, RD7                                  ; reg: 0x008, bit: 7
0235   220C           00860         call    function_003
Message[1302]: RAM Bank undefined in this chunk of code. Ensure that bank bits are correct. Assuming bank 0 from now on.
0236   1107           00861         bcf     PORTC, RC2                                  ; reg: 0x007, bit: 2
0237   1388           00862         bcf     PORTD, RD7                                  ; reg: 0x008, bit: 7
0238   220C           00863         call    function_003
0239   2A33           00864         goto    label_081
                      00865 
023A                  00866 label_082:                                                  ; address: 0x023a
                      00867 
Message[1302]: RAM Bank undefined in this chunk of code. Ensure that bank bits are correct. Assuming bank 0 from now on.
023A   1487           00868         bsf     PORTC, RC1                                  ; reg: 0x007, bit: 1
023B   1788           00869         bsf     PORTD, RD7                                  ; reg: 0x008, bit: 7
023C   220C           00870         call    function_003
Message[1302]: RAM Bank undefined in this chunk of code. Ensure that bank bits are correct. Assuming bank 0 from now on.
023D   1087           00871         bcf     PORTC, RC1                                  ; reg: 0x007, bit: 1
023E   1388           00872         bcf     PORTD, RD7                                  ; reg: 0x008, bit: 7
023F   220C           00873         call    function_003
0240   2A3A           00874         goto    label_082
Message[1302]: RAM Bank undefined in this chunk of code. Ensure that bank bits are correct. Assuming bank 0 from now on.
0241   1407           00875         bsf     PORTC, RC0                                  ; reg: 0x007, bit: 0
0242   1788           00876         bsf     PORTD, RD7                                  ; reg: 0x008, bit: 7
0243   220C           00877         call    function_003
gpasm-1.5.2 #1325 (Nov 17 2022)   asmfile.asm   26/10/2023  18:12:30        PAGE 19


LOC    OBJECT CODE    LINE  SOURCE TEXT
  VALUE

Message[1302]: RAM Bank undefined in this chunk of code. Ensure that bank bits are correct. Assuming bank 0 from now on.
0244   1007           00878         bcf     PORTC, RC0                                  ; reg: 0x007, bit: 0
0245   1388           00879         bcf     PORTD, RD7                                  ; reg: 0x008, bit: 7
0246   220C           00880         call    function_003
0247   0008           00881         return
                      00882 
0248                  00883 function_006:                                               ; address: 0x0248
                      00884 
Message[1302]: RAM Bank undefined in this chunk of code. Ensure that bank bits are correct. Assuming bank 0 from now on.
0248   1043           00885         bcf     0x43, 0x0                                   ; reg: 0x043
0249   1008           00886         bcf     PORTD, RD0                                  ; reg: 0x008, bit: 0
024A   1488           00887         bsf     PORTD, RD1                                  ; reg: 0x008, bit: 1
024B   1508           00888         bsf     PORTD, RD2                                  ; reg: 0x008, bit: 2
024C   1806           00889         btfsc   PORTB, RB0                                  ; reg: 0x006, bit: 0
024D   2A57           00890         goto    label_083
024E   0F20           00891         incfsz  0x20, W                                     ; reg: 0x020
024F   00A0           00892         movwf   0x20                                        ; reg: 0x020
0250   1FA0           00893         btfss   0x20, 0x7                                   ; reg: 0x020
0251   2A57           00894         goto    label_083
0252   1F20           00895         btfss   0x20, 0x6                                   ; reg: 0x020
0253   2A57           00896         goto    label_083
0254   3001           00897         movlw   0x01
0255   00BC           00898         movwf   0x3c                                        ; reg: 0x03c
0256   2B72           00899         goto    label_108
                      00900 
0257                  00901 label_083:                                                  ; address: 0x0257
                      00902 
Message[1302]: RAM Bank undefined in this chunk of code. Ensure that bank bits are correct. Assuming bank 0 from now on.
0257   1886           00903         btfsc   PORTB, RB1                                  ; reg: 0x006, bit: 1
0258   2A62           00904         goto    label_084
0259   0F21           00905         incfsz  0x21, W                                     ; reg: 0x021
025A   00A1           00906         movwf   0x21                                        ; reg: 0x021
025B   1FA1           00907         btfss   0x21, 0x7                                   ; reg: 0x021
025C   2A62           00908         goto    label_084
025D   1F21           00909         btfss   0x21, 0x6                                   ; reg: 0x021
025E   2A62           00910         goto    label_084
025F   3002           00911         movlw   0x02
0260   00BC           00912         movwf   0x3c                                        ; reg: 0x03c
0261   2B72           00913         goto    label_108
                      00914 
0262                  00915 label_084:                                                  ; address: 0x0262
                      00916 
Message[1302]: RAM Bank undefined in this chunk of code. Ensure that bank bits are correct. Assuming bank 0 from now on.
0262   1906           00917         btfsc   PORTB, RB2                                  ; reg: 0x006, bit: 2
0263   2A6D           00918         goto    label_085
0264   0F22           00919         incfsz  0x22, W                                     ; reg: 0x022
0265   00A2           00920         movwf   0x22                                        ; reg: 0x022
0266   1FA2           00921         btfss   0x22, 0x7                                   ; reg: 0x022
0267   2A6D           00922         goto    label_085
0268   1F22           00923         btfss   0x22, 0x6                                   ; reg: 0x022
0269   2A6D           00924         goto    label_085
026A   3003           00925         movlw   0x03
026B   00BC           00926         movwf   0x3c                                        ; reg: 0x03c
gpasm-1.5.2 #1325 (Nov 17 2022)   asmfile.asm   26/10/2023  18:12:30        PAGE 20


LOC    OBJECT CODE    LINE  SOURCE TEXT
  VALUE

026C   2B72           00927         goto    label_108
                      00928 
026D                  00929 label_085:                                                  ; address: 0x026d
                      00930 
Message[1302]: RAM Bank undefined in this chunk of code. Ensure that bank bits are correct. Assuming bank 0 from now on.
026D   1986           00931         btfsc   PORTB, RB3                                  ; reg: 0x006, bit: 3
026E   2A78           00932         goto    label_086
026F   0F23           00933         incfsz  0x23, W                                     ; reg: 0x023
0270   00A3           00934         movwf   0x23                                        ; reg: 0x023
0271   1FA3           00935         btfss   0x23, 0x7                                   ; reg: 0x023
0272   2A78           00936         goto    label_086
0273   1F23           00937         btfss   0x23, 0x6                                   ; reg: 0x023
0274   2A78           00938         goto    label_086
0275   3004           00939         movlw   0x04
0276   00BC           00940         movwf   0x3c                                        ; reg: 0x03c
0277   2B72           00941         goto    label_108
                      00942 
0278                  00943 label_086:                                                  ; address: 0x0278
                      00944 
Message[1302]: RAM Bank undefined in this chunk of code. Ensure that bank bits are correct. Assuming bank 0 from now on.
0278   1A06           00945         btfsc   PORTB, RB4                                  ; reg: 0x006, bit: 4
0279   2A83           00946         goto    label_087
027A   0F24           00947         incfsz  0x24, W                                     ; reg: 0x024
027B   00A4           00948         movwf   0x24                                        ; reg: 0x024
027C   1FA4           00949         btfss   0x24, 0x7                                   ; reg: 0x024
027D   2A83           00950         goto    label_087
027E   1F24           00951         btfss   0x24, 0x6                                   ; reg: 0x024
027F   2A83           00952         goto    label_087
0280   3005           00953         movlw   0x05
0281   00BC           00954         movwf   0x3c                                        ; reg: 0x03c
0282   2B72           00955         goto    label_108
                      00956 
0283                  00957 label_087:                                                  ; address: 0x0283
                      00958 
Message[1302]: RAM Bank undefined in this chunk of code. Ensure that bank bits are correct. Assuming bank 0 from now on.
0283   1A86           00959         btfsc   PORTB, RB5                                  ; reg: 0x006, bit: 5
0284   2A8E           00960         goto    label_088
0285   0F25           00961         incfsz  0x25, W                                     ; reg: 0x025
0286   00A5           00962         movwf   0x25                                        ; reg: 0x025
0287   1FA5           00963         btfss   0x25, 0x7                                   ; reg: 0x025
0288   2A8E           00964         goto    label_088
0289   1F25           00965         btfss   0x25, 0x6                                   ; reg: 0x025
028A   2A8E           00966         goto    label_088
028B   3006           00967         movlw   0x06
028C   00BC           00968         movwf   0x3c                                        ; reg: 0x03c
028D   2B72           00969         goto    label_108
                      00970 
028E                  00971 label_088:                                                  ; address: 0x028e
                      00972 
Message[1302]: RAM Bank undefined in this chunk of code. Ensure that bank bits are correct. Assuming bank 0 from now on.
028E   1805           00973         btfsc   PORTA, RA0                                  ; reg: 0x005, bit: 0
028F   2A99           00974         goto    label_089
0290   0F26           00975         incfsz  0x26, W                                     ; reg: 0x026
gpasm-1.5.2 #1325 (Nov 17 2022)   asmfile.asm   26/10/2023  18:12:30        PAGE 21


LOC    OBJECT CODE    LINE  SOURCE TEXT
  VALUE

0291   00A6           00976         movwf   0x26                                        ; reg: 0x026
0292   1FA6           00977         btfss   0x26, 0x7                                   ; reg: 0x026
0293   2A99           00978         goto    label_089
0294   1F26           00979         btfss   0x26, 0x6                                   ; reg: 0x026
0295   2A99           00980         goto    label_089
0296   3007           00981         movlw   0x07
0297   00BC           00982         movwf   0x3c                                        ; reg: 0x03c
0298   2B72           00983         goto    label_108
                      00984 
0299                  00985 label_089:                                                  ; address: 0x0299
                      00986 
Message[1302]: RAM Bank undefined in this chunk of code. Ensure that bank bits are correct. Assuming bank 0 from now on.
0299   1885           00987         btfsc   PORTA, RA1                                  ; reg: 0x005, bit: 1
029A   2AA4           00988         goto    label_090
029B   0F27           00989         incfsz  0x27, W                                     ; reg: 0x027
029C   00A7           00990         movwf   0x27                                        ; reg: 0x027
029D   1FA7           00991         btfss   0x27, 0x7                                   ; reg: 0x027
029E   2AA4           00992         goto    label_090
029F   1F27           00993         btfss   0x27, 0x6                                   ; reg: 0x027
02A0   2AA4           00994         goto    label_090
02A1   3008           00995         movlw   0x08
02A2   00BC           00996         movwf   0x3c                                        ; reg: 0x03c
02A3   2B72           00997         goto    label_108
                      00998 
02A4                  00999 label_090:                                                  ; address: 0x02a4
                      01000 
Message[1302]: RAM Bank undefined in this chunk of code. Ensure that bank bits are correct. Assuming bank 0 from now on.
02A4   1905           01001         btfsc   PORTA, RA2                                  ; reg: 0x005, bit: 2
02A5   2AAF           01002         goto    label_091
02A6   0F28           01003         incfsz  0x28, W                                     ; reg: 0x028
02A7   00A8           01004         movwf   0x28                                        ; reg: 0x028
02A8   1FA8           01005         btfss   0x28, 0x7                                   ; reg: 0x028
02A9   2AAF           01006         goto    label_091
02AA   1F28           01007         btfss   0x28, 0x6                                   ; reg: 0x028
02AB   2AAF           01008         goto    label_091
02AC   3009           01009         movlw   0x09
02AD   00BC           01010         movwf   0x3c                                        ; reg: 0x03c
02AE   2B72           01011         goto    label_108
                      01012 
02AF                  01013 label_091:                                                  ; address: 0x02af
                      01014 
02AF   3000           01015         movlw   0x00
Message[1302]: RAM Bank undefined in this chunk of code. Ensure that bank bits are correct. Assuming bank 0 from now on.
02B0   00BC           01016         movwf   0x3c                                        ; reg: 0x03c
02B1   1408           01017         bsf     PORTD, RD0                                  ; reg: 0x008, bit: 0
02B2   1088           01018         bcf     PORTD, RD1                                  ; reg: 0x008, bit: 1
02B3   1508           01019         bsf     PORTD, RD2                                  ; reg: 0x008, bit: 2
02B4   1886           01020         btfsc   PORTB, RB1                                  ; reg: 0x006, bit: 1
02B5   2ABF           01021         goto    label_092
02B6   0F29           01022         incfsz  0x29, W                                     ; reg: 0x029
02B7   00A9           01023         movwf   0x29                                        ; reg: 0x029
02B8   1FA9           01024         btfss   0x29, 0x7                                   ; reg: 0x029
02B9   2ABF           01025         goto    label_092
gpasm-1.5.2 #1325 (Nov 17 2022)   asmfile.asm   26/10/2023  18:12:30        PAGE 22


LOC    OBJECT CODE    LINE  SOURCE TEXT
  VALUE

02BA   1F29           01026         btfss   0x29, 0x6                                   ; reg: 0x029
02BB   2ABF           01027         goto    label_092
02BC   300A           01028         movlw   0x0a
02BD   00BC           01029         movwf   0x3c                                        ; reg: 0x03c
02BE   2B72           01030         goto    label_108
                      01031 
02BF                  01032 label_092:                                                  ; address: 0x02bf
                      01033 
Message[1302]: RAM Bank undefined in this chunk of code. Ensure that bank bits are correct. Assuming bank 0 from now on.
02BF   1906           01034         btfsc   PORTB, RB2                                  ; reg: 0x006, bit: 2
02C0   2ACA           01035         goto    label_093
02C1   0F2A           01036         incfsz  0x2a, W                                     ; reg: 0x02a
02C2   00AA           01037         movwf   0x2a                                        ; reg: 0x02a
02C3   1FAA           01038         btfss   0x2a, 0x7                                   ; reg: 0x02a
02C4   2ACA           01039         goto    label_093
02C5   1F2A           01040         btfss   0x2a, 0x6                                   ; reg: 0x02a
02C6   2ACA           01041         goto    label_093
02C7   300B           01042         movlw   0x0b
02C8   00BC           01043         movwf   0x3c                                        ; reg: 0x03c
02C9   2B72           01044         goto    label_108
                      01045 
02CA                  01046 label_093:                                                  ; address: 0x02ca
                      01047 
Message[1302]: RAM Bank undefined in this chunk of code. Ensure that bank bits are correct. Assuming bank 0 from now on.
02CA   1986           01048         btfsc   PORTB, RB3                                  ; reg: 0x006, bit: 3
02CB   2AD5           01049         goto    label_094
02CC   0F2B           01050         incfsz  0x2b, W                                     ; reg: 0x02b
02CD   00AB           01051         movwf   0x2b                                        ; reg: 0x02b
02CE   1FAB           01052         btfss   0x2b, 0x7                                   ; reg: 0x02b
02CF   2AD5           01053         goto    label_094
02D0   1F2B           01054         btfss   0x2b, 0x6                                   ; reg: 0x02b
02D1   2AD5           01055         goto    label_094
02D2   300C           01056         movlw   0x0c
02D3   00BC           01057         movwf   0x3c                                        ; reg: 0x03c
02D4   2B72           01058         goto    label_108
                      01059 
02D5                  01060 label_094:                                                  ; address: 0x02d5
                      01061 
Message[1302]: RAM Bank undefined in this chunk of code. Ensure that bank bits are correct. Assuming bank 0 from now on.
02D5   1A06           01062         btfsc   PORTB, RB4                                  ; reg: 0x006, bit: 4
02D6   2AE0           01063         goto    label_095
02D7   0F2C           01064         incfsz  0x2c, W                                     ; reg: 0x02c
02D8   00AC           01065         movwf   0x2c                                        ; reg: 0x02c
02D9   1FAC           01066         btfss   0x2c, 0x7                                   ; reg: 0x02c
02DA   2AE0           01067         goto    label_095
02DB   1F2C           01068         btfss   0x2c, 0x6                                   ; reg: 0x02c
02DC   2AE0           01069         goto    label_095
02DD   300D           01070         movlw   0x0d
02DE   00BC           01071         movwf   0x3c                                        ; reg: 0x03c
02DF   2B72           01072         goto    label_108
                      01073 
02E0                  01074 label_095:                                                  ; address: 0x02e0
                      01075 
gpasm-1.5.2 #1325 (Nov 17 2022)   asmfile.asm   26/10/2023  18:12:30        PAGE 23


LOC    OBJECT CODE    LINE  SOURCE TEXT
  VALUE

Message[1302]: RAM Bank undefined in this chunk of code. Ensure that bank bits are correct. Assuming bank 0 from now on.
02E0   1A86           01076         btfsc   PORTB, RB5                                  ; reg: 0x006, bit: 5
02E1   2AEB           01077         goto    label_096
02E2   0F2D           01078         incfsz  0x2d, W                                     ; reg: 0x02d
02E3   00AD           01079         movwf   0x2d                                        ; reg: 0x02d
02E4   1FAD           01080         btfss   0x2d, 0x7                                   ; reg: 0x02d
02E5   2AEB           01081         goto    label_096
02E6   1F2D           01082         btfss   0x2d, 0x6                                   ; reg: 0x02d
02E7   2AEB           01083         goto    label_096
02E8   300E           01084         movlw   0x0e
02E9   00BC           01085         movwf   0x3c                                        ; reg: 0x03c
02EA   2B72           01086         goto    label_108
                      01087 
02EB                  01088 label_096:                                                  ; address: 0x02eb
                      01089 
Message[1302]: RAM Bank undefined in this chunk of code. Ensure that bank bits are correct. Assuming bank 0 from now on.
02EB   1805           01090         btfsc   PORTA, RA0                                  ; reg: 0x005, bit: 0
02EC   2AF6           01091         goto    label_097
02ED   0F2E           01092         incfsz  0x2e, W                                     ; reg: 0x02e
02EE   00AE           01093         movwf   0x2e                                        ; reg: 0x02e
02EF   1FAE           01094         btfss   0x2e, 0x7                                   ; reg: 0x02e
02F0   2AF6           01095         goto    label_097
02F1   1F2E           01096         btfss   0x2e, 0x6                                   ; reg: 0x02e
02F2   2AF6           01097         goto    label_097
02F3   300F           01098         movlw   0x0f
02F4   00BC           01099         movwf   0x3c                                        ; reg: 0x03c
02F5   2B72           01100         goto    label_108
                      01101 
02F6                  01102 label_097:                                                  ; address: 0x02f6
                      01103 
Message[1302]: RAM Bank undefined in this chunk of code. Ensure that bank bits are correct. Assuming bank 0 from now on.
02F6   1885           01104         btfsc   PORTA, RA1                                  ; reg: 0x005, bit: 1
02F7   2B01           01105         goto    label_098
02F8   0F2F           01106         incfsz  0x2f, W                                     ; reg: 0x02f
02F9   00AF           01107         movwf   0x2f                                        ; reg: 0x02f
02FA   1FAF           01108         btfss   0x2f, 0x7                                   ; reg: 0x02f
02FB   2B01           01109         goto    label_098
02FC   1F2F           01110         btfss   0x2f, 0x6                                   ; reg: 0x02f
02FD   2B01           01111         goto    label_098
02FE   3010           01112         movlw   0x10
02FF   00BC           01113         movwf   0x3c                                        ; reg: 0x03c
0300   2B72           01114         goto    label_108
                      01115 
0301                  01116 label_098:                                                  ; address: 0x0301
                      01117 
Message[1302]: RAM Bank undefined in this chunk of code. Ensure that bank bits are correct. Assuming bank 0 from now on.
0301   1905           01118         btfsc   PORTA, RA2                                  ; reg: 0x005, bit: 2
0302   2B0C           01119         goto    label_099
0303   0F30           01120         incfsz  0x30, W                                     ; reg: 0x030
0304   00B0           01121         movwf   0x30                                        ; reg: 0x030
0305   1FB0           01122         btfss   0x30, 0x7                                   ; reg: 0x030
0306   2B0C           01123         goto    label_099
0307   1F30           01124         btfss   0x30, 0x6                                   ; reg: 0x030
gpasm-1.5.2 #1325 (Nov 17 2022)   asmfile.asm   26/10/2023  18:12:30        PAGE 24


LOC    OBJECT CODE    LINE  SOURCE TEXT
  VALUE

0308   2B0C           01125         goto    label_099
0309   3011           01126         movlw   0x11
030A   00BC           01127         movwf   0x3c                                        ; reg: 0x03c
030B   2B72           01128         goto    label_108
                      01129 
030C                  01130 label_099:                                                  ; address: 0x030c
                      01131 
Message[1302]: RAM Bank undefined in this chunk of code. Ensure that bank bits are correct. Assuming bank 0 from now on.
030C   1408           01132         bsf     PORTD, RD0                                  ; reg: 0x008, bit: 0
030D   1488           01133         bsf     PORTD, RD1                                  ; reg: 0x008, bit: 1
030E   1108           01134         bcf     PORTD, RD2                                  ; reg: 0x008, bit: 2
030F   1806           01135         btfsc   PORTB, RB0                                  ; reg: 0x006, bit: 0
0310   2B1A           01136         goto    label_100
0311   0F31           01137         incfsz  0x31, W                                     ; reg: 0x031
0312   00B1           01138         movwf   0x31                                        ; reg: 0x031
0313   1FB1           01139         btfss   0x31, 0x7                                   ; reg: 0x031
0314   2B1A           01140         goto    label_100
0315   1F31           01141         btfss   0x31, 0x6                                   ; reg: 0x031
0316   2B1A           01142         goto    label_100
0317   3012           01143         movlw   0x12
0318   00BC           01144         movwf   0x3c                                        ; reg: 0x03c
0319   2B72           01145         goto    label_108
                      01146 
031A                  01147 label_100:                                                  ; address: 0x031a
                      01148 
Message[1302]: RAM Bank undefined in this chunk of code. Ensure that bank bits are correct. Assuming bank 0 from now on.
031A   1886           01149         btfsc   PORTB, RB1                                  ; reg: 0x006, bit: 1
031B   2B25           01150         goto    label_101
031C   0F32           01151         incfsz  0x32, W                                     ; reg: 0x032
031D   00B2           01152         movwf   0x32                                        ; reg: 0x032
031E   1FB2           01153         btfss   0x32, 0x7                                   ; reg: 0x032
031F   2B25           01154         goto    label_101
0320   1F32           01155         btfss   0x32, 0x6                                   ; reg: 0x032
0321   2B25           01156         goto    label_101
0322   3013           01157         movlw   0x13
0323   00BC           01158         movwf   0x3c                                        ; reg: 0x03c
0324   2B72           01159         goto    label_108
                      01160 
0325                  01161 label_101:                                                  ; address: 0x0325
                      01162 
Message[1302]: RAM Bank undefined in this chunk of code. Ensure that bank bits are correct. Assuming bank 0 from now on.
0325   1906           01163         btfsc   PORTB, RB2                                  ; reg: 0x006, bit: 2
0326   2B30           01164         goto    label_102
0327   0F33           01165         incfsz  0x33, W                                     ; reg: 0x033
0328   00B3           01166         movwf   0x33                                        ; reg: 0x033
0329   1FB3           01167         btfss   0x33, 0x7                                   ; reg: 0x033
032A   2B30           01168         goto    label_102
032B   3014           01169         movlw   0x14
032C   00BC           01170         movwf   0x3c                                        ; reg: 0x03c
032D   1F33           01171         btfss   0x33, 0x6                                   ; reg: 0x033
032E   2B30           01172         goto    label_102
032F   2B72           01173         goto    label_108
                      01174 
gpasm-1.5.2 #1325 (Nov 17 2022)   asmfile.asm   26/10/2023  18:12:30        PAGE 25


LOC    OBJECT CODE    LINE  SOURCE TEXT
  VALUE

0330                  01175 label_102:                                                  ; address: 0x0330
                      01176 
Message[1302]: RAM Bank undefined in this chunk of code. Ensure that bank bits are correct. Assuming bank 0 from now on.
0330   1986           01177         btfsc   PORTB, RB3                                  ; reg: 0x006, bit: 3
0331   2B3B           01178         goto    label_103
0332   0F34           01179         incfsz  0x34, W                                     ; reg: 0x034
0333   00B4           01180         movwf   0x34                                        ; reg: 0x034
0334   1FB4           01181         btfss   0x34, 0x7                                   ; reg: 0x034
0335   2B3B           01182         goto    label_103
0336   1F34           01183         btfss   0x34, 0x6                                   ; reg: 0x034
0337   2B3B           01184         goto    label_103
0338   3015           01185         movlw   0x15
0339   00BC           01186         movwf   0x3c                                        ; reg: 0x03c
033A   2B72           01187         goto    label_108
                      01188 
033B                  01189 label_103:                                                  ; address: 0x033b
                      01190 
Message[1302]: RAM Bank undefined in this chunk of code. Ensure that bank bits are correct. Assuming bank 0 from now on.
033B   1A06           01191         btfsc   PORTB, RB4                                  ; reg: 0x006, bit: 4
033C   2B46           01192         goto    label_104
033D   0F35           01193         incfsz  0x35, W                                     ; reg: 0x035
033E   00B5           01194         movwf   0x35                                        ; reg: 0x035
033F   1FB5           01195         btfss   0x35, 0x7                                   ; reg: 0x035
0340   2B46           01196         goto    label_104
0341   1F35           01197         btfss   0x35, 0x6                                   ; reg: 0x035
0342   2B46           01198         goto    label_104
0343   3016           01199         movlw   0x16
0344   00BC           01200         movwf   0x3c                                        ; reg: 0x03c
0345   2B72           01201         goto    label_108
                      01202 
0346                  01203 label_104:                                                  ; address: 0x0346
                      01204 
Message[1302]: RAM Bank undefined in this chunk of code. Ensure that bank bits are correct. Assuming bank 0 from now on.
0346   1A86           01205         btfsc   PORTB, RB5                                  ; reg: 0x006, bit: 5
0347   2B51           01206         goto    label_105
0348   0F36           01207         incfsz  0x36, W                                     ; reg: 0x036
0349   00B6           01208         movwf   0x36                                        ; reg: 0x036
034A   1FB6           01209         btfss   0x36, 0x7                                   ; reg: 0x036
034B   2B51           01210         goto    label_105
034C   1F36           01211         btfss   0x36, 0x6                                   ; reg: 0x036
034D   2B51           01212         goto    label_105
034E   3017           01213         movlw   0x17
034F   00BC           01214         movwf   0x3c                                        ; reg: 0x03c
0350   2B72           01215         goto    label_108
                      01216 
0351                  01217 label_105:                                                  ; address: 0x0351
                      01218 
Message[1302]: RAM Bank undefined in this chunk of code. Ensure that bank bits are correct. Assuming bank 0 from now on.
0351   1805           01219         btfsc   PORTA, RA0                                  ; reg: 0x005, bit: 0
0352   2B5C           01220         goto    label_106
0353   0F37           01221         incfsz  0x37, W                                     ; reg: 0x037
0354   00B7           01222         movwf   0x37                                        ; reg: 0x037
0355   1FB7           01223         btfss   0x37, 0x7                                   ; reg: 0x037
gpasm-1.5.2 #1325 (Nov 17 2022)   asmfile.asm   26/10/2023  18:12:30        PAGE 26


LOC    OBJECT CODE    LINE  SOURCE TEXT
  VALUE

0356   2B5C           01224         goto    label_106
0357   1F37           01225         btfss   0x37, 0x6                                   ; reg: 0x037
0358   2B5C           01226         goto    label_106
0359   3018           01227         movlw   0x18
035A   00BC           01228         movwf   0x3c                                        ; reg: 0x03c
035B   2B72           01229         goto    label_108
                      01230 
035C                  01231 label_106:                                                  ; address: 0x035c
                      01232 
Message[1302]: RAM Bank undefined in this chunk of code. Ensure that bank bits are correct. Assuming bank 0 from now on.
035C   1885           01233         btfsc   PORTA, RA1                                  ; reg: 0x005, bit: 1
035D   2B67           01234         goto    label_107
035E   0F38           01235         incfsz  0x38, W                                     ; reg: 0x038
035F   00B8           01236         movwf   0x38                                        ; reg: 0x038
0360   1FB8           01237         btfss   0x38, 0x7                                   ; reg: 0x038
0361   2B67           01238         goto    label_107
0362   1F38           01239         btfss   0x38, 0x6                                   ; reg: 0x038
0363   2B67           01240         goto    label_107
0364   3019           01241         movlw   0x19
0365   00BC           01242         movwf   0x3c                                        ; reg: 0x03c
0366   2B72           01243         goto    label_108
                      01244 
0367                  01245 label_107:                                                  ; address: 0x0367
                      01246 
Message[1302]: RAM Bank undefined in this chunk of code. Ensure that bank bits are correct. Assuming bank 0 from now on.
0367   1905           01247         btfsc   PORTA, RA2                                  ; reg: 0x005, bit: 2
0368   2B74           01248         goto    label_109
0369   0F39           01249         incfsz  0x39, W                                     ; reg: 0x039
036A   00B9           01250         movwf   0x39                                        ; reg: 0x039
036B   1FB9           01251         btfss   0x39, 0x7                                   ; reg: 0x039
036C   2B74           01252         goto    label_109
036D   1F39           01253         btfss   0x39, 0x6                                   ; reg: 0x039
036E   2B74           01254         goto    label_109
036F   301A           01255         movlw   0x1a
0370   00BC           01256         movwf   0x3c                                        ; reg: 0x03c
0371   2B72           01257         goto    label_108
                      01258 
0372                  01259 label_108:                                                  ; address: 0x0372
                      01260 
0372   21A8           01261         call    function_000
Message[1302]: RAM Bank undefined in this chunk of code. Ensure that bank bits are correct. Assuming bank 0 from now on.
0373   1443           01262         bsf     0x43, 0x0                                   ; reg: 0x043
                      01263 
0374                  01264 label_109:                                                  ; address: 0x0374
                      01265 
0374   0008           01266         return
                      01267 
0375                  01268 function_007:                                               ; address: 0x0375
                      01269 
Message[1302]: RAM Bank undefined in this chunk of code. Ensure that bank bits are correct. Assuming bank 0 from now on.
0375   1C06           01270         btfss   PORTB, RB0                                  ; reg: 0x006, bit: 0
0376   2B75           01271         goto    function_007
0377   1C86           01272         btfss   PORTB, RB1                                  ; reg: 0x006, bit: 1
gpasm-1.5.2 #1325 (Nov 17 2022)   asmfile.asm   26/10/2023  18:12:30        PAGE 27


LOC    OBJECT CODE    LINE  SOURCE TEXT
  VALUE

0378   2B75           01273         goto    function_007
0379   1D06           01274         btfss   PORTB, RB2                                  ; reg: 0x006, bit: 2
037A   2B75           01275         goto    function_007
037B   1D86           01276         btfss   PORTB, RB3                                  ; reg: 0x006, bit: 3
037C   2B75           01277         goto    function_007
037D   1E06           01278         btfss   PORTB, RB4                                  ; reg: 0x006, bit: 4
037E   2B75           01279         goto    function_007
037F   1E86           01280         btfss   PORTB, RB5                                  ; reg: 0x006, bit: 5
0380   2B75           01281         goto    function_007
0381   1C05           01282         btfss   PORTA, RA0                                  ; reg: 0x005, bit: 0
0382   2B75           01283         goto    function_007
0383   1C85           01284         btfss   PORTA, RA1                                  ; reg: 0x005, bit: 1
0384   2B75           01285         goto    function_007
0385   1D05           01286         btfss   PORTA, RA2                                  ; reg: 0x005, bit: 2
0386   2B75           01287         goto    function_007
0387   0008           01288         return
                      01289 
0388                  01290 function_008:                                               ; address: 0x0388
                      01291 
Message[1302]: RAM Bank undefined in this chunk of code. Ensure that bank bits are correct. Assuming bank 0 from now on.
0388   0841           01292         movf    0x41, W                                     ; reg: 0x041
0389   00BD           01293         movwf   0x3d                                        ; reg: 0x03d
038A   30FE           01294         movlw   0xfe
038B   07C1           01295         addwf   0x41, F                                     ; reg: 0x041
038C   0AC1           01296         incf    0x41, F                                     ; reg: 0x041
038D   1D03           01297         btfss   STATUS, Z                                   ; reg: 0x003, bit: 2
038E   2B92           01298         goto    label_110
038F   1507           01299         bsf     PORTC, RC2                                  ; reg: 0x007, bit: 2
0390   1688           01300         bsf     PORTD, RD5                                  ; reg: 0x008, bit: 5
0391   2C8C           01301         goto    label_136
                      01302 
0392                  01303 label_110:                                                  ; address: 0x0392
                      01304 
Message[1302]: RAM Bank undefined in this chunk of code. Ensure that bank bits are correct. Assuming bank 0 from now on.
0392   083D           01305         movf    0x3d, W                                     ; reg: 0x03d
0393   00C1           01306         movwf   0x41                                        ; reg: 0x041
0394   30FD           01307         movlw   0xfd
0395   07C1           01308         addwf   0x41, F                                     ; reg: 0x041
0396   0AC1           01309         incf    0x41, F                                     ; reg: 0x041
0397   1D03           01310         btfss   STATUS, Z                                   ; reg: 0x003, bit: 2
0398   2B9C           01311         goto    label_111
0399   1487           01312         bsf     PORTC, RC1                                  ; reg: 0x007, bit: 1
039A   1688           01313         bsf     PORTD, RD5                                  ; reg: 0x008, bit: 5
039B   2C8C           01314         goto    label_136
                      01315 
039C                  01316 label_111:                                                  ; address: 0x039c
                      01317 
Message[1302]: RAM Bank undefined in this chunk of code. Ensure that bank bits are correct. Assuming bank 0 from now on.
039C   083D           01318         movf    0x3d, W                                     ; reg: 0x03d
039D   00C1           01319         movwf   0x41                                        ; reg: 0x041
039E   30FC           01320         movlw   0xfc
039F   07C1           01321         addwf   0x41, F                                     ; reg: 0x041
03A0   0AC1           01322         incf    0x41, F                                     ; reg: 0x041
gpasm-1.5.2 #1325 (Nov 17 2022)   asmfile.asm   26/10/2023  18:12:30        PAGE 28


LOC    OBJECT CODE    LINE  SOURCE TEXT
  VALUE

03A1   1D03           01323         btfss   STATUS, Z                                   ; reg: 0x003, bit: 2
03A2   2BA6           01324         goto    label_112
03A3   1407           01325         bsf     PORTC, RC0                                  ; reg: 0x007, bit: 0
03A4   1688           01326         bsf     PORTD, RD5                                  ; reg: 0x008, bit: 5
03A5   2C8C           01327         goto    label_136
                      01328 
03A6                  01329 label_112:                                                  ; address: 0x03a6
                      01330 
Message[1302]: RAM Bank undefined in this chunk of code. Ensure that bank bits are correct. Assuming bank 0 from now on.
03A6   083D           01331         movf    0x3d, W                                     ; reg: 0x03d
03A7   00C1           01332         movwf   0x41                                        ; reg: 0x041
03A8   30FB           01333         movlw   0xfb
03A9   07C1           01334         addwf   0x41, F                                     ; reg: 0x041
03AA   0AC1           01335         incf    0x41, F                                     ; reg: 0x041
03AB   1D03           01336         btfss   STATUS, Z                                   ; reg: 0x003, bit: 2
03AC   2BB0           01337         goto    label_113
03AD   1607           01338         bsf     PORTC, RC4                                  ; reg: 0x007, bit: 4
03AE   1688           01339         bsf     PORTD, RD5                                  ; reg: 0x008, bit: 5
03AF   2C8C           01340         goto    label_136
                      01341 
03B0                  01342 label_113:                                                  ; address: 0x03b0
                      01343 
Message[1302]: RAM Bank undefined in this chunk of code. Ensure that bank bits are correct. Assuming bank 0 from now on.
03B0   083D           01344         movf    0x3d, W                                     ; reg: 0x03d
03B1   00C1           01345         movwf   0x41                                        ; reg: 0x041
03B2   30FA           01346         movlw   0xfa
03B3   07C1           01347         addwf   0x41, F                                     ; reg: 0x041
03B4   0AC1           01348         incf    0x41, F                                     ; reg: 0x041
03B5   1D03           01349         btfss   STATUS, Z                                   ; reg: 0x003, bit: 2
03B6   2BBA           01350         goto    label_114
03B7   1687           01351         bsf     PORTC, RC5                                  ; reg: 0x007, bit: 5
03B8   1688           01352         bsf     PORTD, RD5                                  ; reg: 0x008, bit: 5
03B9   2C8C           01353         goto    label_136
                      01354 
03BA                  01355 label_114:                                                  ; address: 0x03ba
                      01356 
Message[1302]: RAM Bank undefined in this chunk of code. Ensure that bank bits are correct. Assuming bank 0 from now on.
03BA   083D           01357         movf    0x3d, W                                     ; reg: 0x03d
03BB   00C1           01358         movwf   0x41                                        ; reg: 0x041
03BC   30F9           01359         movlw   0xf9
03BD   07C1           01360         addwf   0x41, F                                     ; reg: 0x041
03BE   0AC1           01361         incf    0x41, F                                     ; reg: 0x041
03BF   1D03           01362         btfss   STATUS, Z                                   ; reg: 0x003, bit: 2
03C0   2BC4           01363         goto    label_115
03C1   1707           01364         bsf     PORTC, RC6                                  ; reg: 0x007, bit: 6
03C2   1688           01365         bsf     PORTD, RD5                                  ; reg: 0x008, bit: 5
03C3   2C8C           01366         goto    label_136
                      01367 
03C4                  01368 label_115:                                                  ; address: 0x03c4
                      01369 
Message[1302]: RAM Bank undefined in this chunk of code. Ensure that bank bits are correct. Assuming bank 0 from now on.
03C4   083D           01370         movf    0x3d, W                                     ; reg: 0x03d
03C5   00C1           01371         movwf   0x41                                        ; reg: 0x041
gpasm-1.5.2 #1325 (Nov 17 2022)   asmfile.asm   26/10/2023  18:12:30        PAGE 29


LOC    OBJECT CODE    LINE  SOURCE TEXT
  VALUE

03C6   30F8           01372         movlw   0xf8
03C7   07C1           01373         addwf   0x41, F                                     ; reg: 0x041
03C8   0AC1           01374         incf    0x41, F                                     ; reg: 0x041
03C9   1D03           01375         btfss   STATUS, Z                                   ; reg: 0x003, bit: 2
03CA   2BCE           01376         goto    label_116
03CB   1787           01377         bsf     PORTC, RC7                                  ; reg: 0x007, bit: 7
03CC   1688           01378         bsf     PORTD, RD5                                  ; reg: 0x008, bit: 5
03CD   2C8C           01379         goto    label_136
                      01380 
03CE                  01381 label_116:                                                  ; address: 0x03ce
                      01382 
Message[1302]: RAM Bank undefined in this chunk of code. Ensure that bank bits are correct. Assuming bank 0 from now on.
03CE   083D           01383         movf    0x3d, W                                     ; reg: 0x03d
03CF   00C1           01384         movwf   0x41                                        ; reg: 0x041
03D0   30F7           01385         movlw   0xf7
03D1   07C1           01386         addwf   0x41, F                                     ; reg: 0x041
03D2   0AC1           01387         incf    0x41, F                                     ; reg: 0x041
03D3   1D03           01388         btfss   STATUS, Z                                   ; reg: 0x003, bit: 2
03D4   2BD8           01389         goto    label_117
03D5   1608           01390         bsf     PORTD, RD4                                  ; reg: 0x008, bit: 4
03D6   1688           01391         bsf     PORTD, RD5                                  ; reg: 0x008, bit: 5
03D7   2C8C           01392         goto    label_136
                      01393 
03D8                  01394 label_117:                                                  ; address: 0x03d8
                      01395 
Message[1302]: RAM Bank undefined in this chunk of code. Ensure that bank bits are correct. Assuming bank 0 from now on.
03D8   083D           01396         movf    0x3d, W                                     ; reg: 0x03d
03D9   00C1           01397         movwf   0x41                                        ; reg: 0x041
03DA   30F6           01398         movlw   0xf6
03DB   07C1           01399         addwf   0x41, F                                     ; reg: 0x041
03DC   0AC1           01400         incf    0x41, F                                     ; reg: 0x041
03DD   1D03           01401         btfss   STATUS, Z                                   ; reg: 0x003, bit: 2
03DE   2BE2           01402         goto    label_118
03DF   1587           01403         bsf     PORTC, RC3                                  ; reg: 0x007, bit: 3
03E0   1688           01404         bsf     PORTD, RD5                                  ; reg: 0x008, bit: 5
03E1   2C8C           01405         goto    label_136
                      01406 
03E2                  01407 label_118:                                                  ; address: 0x03e2
                      01408 
Message[1302]: RAM Bank undefined in this chunk of code. Ensure that bank bits are correct. Assuming bank 0 from now on.
03E2   083D           01409         movf    0x3d, W                                     ; reg: 0x03d
03E3   00C1           01410         movwf   0x41                                        ; reg: 0x041
03E4   30F5           01411         movlw   0xf5
03E5   07C1           01412         addwf   0x41, F                                     ; reg: 0x041
03E6   0AC1           01413         incf    0x41, F                                     ; reg: 0x041
03E7   1D03           01414         btfss   STATUS, Z                                   ; reg: 0x003, bit: 2
03E8   2BEC           01415         goto    label_119
03E9   1507           01416         bsf     PORTC, RC2                                  ; reg: 0x007, bit: 2
03EA   1708           01417         bsf     PORTD, RD6                                  ; reg: 0x008, bit: 6
03EB   2C8C           01418         goto    label_136
                      01419 
03EC                  01420 label_119:                                                  ; address: 0x03ec
                      01421 
gpasm-1.5.2 #1325 (Nov 17 2022)   asmfile.asm   26/10/2023  18:12:30        PAGE 30


LOC    OBJECT CODE    LINE  SOURCE TEXT
  VALUE

Message[1302]: RAM Bank undefined in this chunk of code. Ensure that bank bits are correct. Assuming bank 0 from now on.
03EC   083D           01422         movf    0x3d, W                                     ; reg: 0x03d
03ED   00C1           01423         movwf   0x41                                        ; reg: 0x041
03EE   30F4           01424         movlw   0xf4
03EF   07C1           01425         addwf   0x41, F                                     ; reg: 0x041
03F0   0AC1           01426         incf    0x41, F                                     ; reg: 0x041
03F1   1D03           01427         btfss   STATUS, Z                                   ; reg: 0x003, bit: 2
03F2   2BF6           01428         goto    label_120
03F3   1487           01429         bsf     PORTC, RC1                                  ; reg: 0x007, bit: 1
03F4   1708           01430         bsf     PORTD, RD6                                  ; reg: 0x008, bit: 6
03F5   2C8C           01431         goto    label_136
                      01432 
03F6                  01433 label_120:                                                  ; address: 0x03f6
                      01434 
Message[1302]: RAM Bank undefined in this chunk of code. Ensure that bank bits are correct. Assuming bank 0 from now on.
03F6   083D           01435         movf    0x3d, W                                     ; reg: 0x03d
03F7   00C1           01436         movwf   0x41                                        ; reg: 0x041
03F8   30F3           01437         movlw   0xf3
03F9   07C1           01438         addwf   0x41, F                                     ; reg: 0x041
03FA   0AC1           01439         incf    0x41, F                                     ; reg: 0x041
03FB   1D03           01440         btfss   STATUS, Z                                   ; reg: 0x003, bit: 2
03FC   2C00           01441         goto    label_121
03FD   1407           01442         bsf     PORTC, RC0                                  ; reg: 0x007, bit: 0
03FE   1708           01443         bsf     PORTD, RD6                                  ; reg: 0x008, bit: 6
03FF   2C8C           01444         goto    label_136
                      01445 
0400                  01446 label_121:                                                  ; address: 0x0400
                      01447 
Message[1302]: RAM Bank undefined in this chunk of code. Ensure that bank bits are correct. Assuming bank 0 from now on.
0400   083D           01448         movf    0x3d, W                                     ; reg: 0x03d
0401   00C1           01449         movwf   0x41                                        ; reg: 0x041
0402   30F2           01450         movlw   0xf2
0403   07C1           01451         addwf   0x41, F                                     ; reg: 0x041
0404   0AC1           01452         incf    0x41, F                                     ; reg: 0x041
0405   1D03           01453         btfss   STATUS, Z                                   ; reg: 0x003, bit: 2
0406   2C0A           01454         goto    label_122
0407   1607           01455         bsf     PORTC, RC4                                  ; reg: 0x007, bit: 4
0408   1708           01456         bsf     PORTD, RD6                                  ; reg: 0x008, bit: 6
0409   2C8C           01457         goto    label_136
                      01458 
040A                  01459 label_122:                                                  ; address: 0x040a
                      01460 
Message[1302]: RAM Bank undefined in this chunk of code. Ensure that bank bits are correct. Assuming bank 0 from now on.
040A   083D           01461         movf    0x3d, W                                     ; reg: 0x03d
040B   00C1           01462         movwf   0x41                                        ; reg: 0x041
040C   30F1           01463         movlw   0xf1
040D   07C1           01464         addwf   0x41, F                                     ; reg: 0x041
040E   0AC1           01465         incf    0x41, F                                     ; reg: 0x041
040F   1D03           01466         btfss   STATUS, Z                                   ; reg: 0x003, bit: 2
0410   2C14           01467         goto    label_123
0411   1687           01468         bsf     PORTC, RC5                                  ; reg: 0x007, bit: 5
0412   1708           01469         bsf     PORTD, RD6                                  ; reg: 0x008, bit: 6
0413   2C8C           01470         goto    label_136
gpasm-1.5.2 #1325 (Nov 17 2022)   asmfile.asm   26/10/2023  18:12:30        PAGE 31


LOC    OBJECT CODE    LINE  SOURCE TEXT
  VALUE

                      01471 
0414                  01472 label_123:                                                  ; address: 0x0414
                      01473 
Message[1302]: RAM Bank undefined in this chunk of code. Ensure that bank bits are correct. Assuming bank 0 from now on.
0414   083D           01474         movf    0x3d, W                                     ; reg: 0x03d
0415   00C1           01475         movwf   0x41                                        ; reg: 0x041
0416   30F0           01476         movlw   0xf0
0417   07C1           01477         addwf   0x41, F                                     ; reg: 0x041
0418   0AC1           01478         incf    0x41, F                                     ; reg: 0x041
0419   1D03           01479         btfss   STATUS, Z                                   ; reg: 0x003, bit: 2
041A   2C1E           01480         goto    label_124
041B   1707           01481         bsf     PORTC, RC6                                  ; reg: 0x007, bit: 6
041C   1708           01482         bsf     PORTD, RD6                                  ; reg: 0x008, bit: 6
041D   2C8C           01483         goto    label_136
                      01484 
041E                  01485 label_124:                                                  ; address: 0x041e
                      01486 
Message[1302]: RAM Bank undefined in this chunk of code. Ensure that bank bits are correct. Assuming bank 0 from now on.
041E   083D           01487         movf    0x3d, W                                     ; reg: 0x03d
041F   00C1           01488         movwf   0x41                                        ; reg: 0x041
0420   30EF           01489         movlw   0xef
0421   07C1           01490         addwf   0x41, F                                     ; reg: 0x041
0422   0AC1           01491         incf    0x41, F                                     ; reg: 0x041
0423   1D03           01492         btfss   STATUS, Z                                   ; reg: 0x003, bit: 2
0424   2C28           01493         goto    label_125
0425   1787           01494         bsf     PORTC, RC7                                  ; reg: 0x007, bit: 7
0426   1708           01495         bsf     PORTD, RD6                                  ; reg: 0x008, bit: 6
0427   2C8C           01496         goto    label_136
                      01497 
0428                  01498 label_125:                                                  ; address: 0x0428
                      01499 
Message[1302]: RAM Bank undefined in this chunk of code. Ensure that bank bits are correct. Assuming bank 0 from now on.
0428   083D           01500         movf    0x3d, W                                     ; reg: 0x03d
0429   00C1           01501         movwf   0x41                                        ; reg: 0x041
042A   30EE           01502         movlw   0xee
042B   07C1           01503         addwf   0x41, F                                     ; reg: 0x041
042C   0AC1           01504         incf    0x41, F                                     ; reg: 0x041
042D   1D03           01505         btfss   STATUS, Z                                   ; reg: 0x003, bit: 2
042E   2C32           01506         goto    label_126
042F   1608           01507         bsf     PORTD, RD4                                  ; reg: 0x008, bit: 4
0430   1708           01508         bsf     PORTD, RD6                                  ; reg: 0x008, bit: 6
0431   2C8C           01509         goto    label_136
                      01510 
0432                  01511 label_126:                                                  ; address: 0x0432
                      01512 
Message[1302]: RAM Bank undefined in this chunk of code. Ensure that bank bits are correct. Assuming bank 0 from now on.
0432   083D           01513         movf    0x3d, W                                     ; reg: 0x03d
0433   00C1           01514         movwf   0x41                                        ; reg: 0x041
0434   30ED           01515         movlw   0xed
0435   07C1           01516         addwf   0x41, F                                     ; reg: 0x041
0436   0AC1           01517         incf    0x41, F                                     ; reg: 0x041
0437   1D03           01518         btfss   STATUS, Z                                   ; reg: 0x003, bit: 2
0438   2C3C           01519         goto    label_127
gpasm-1.5.2 #1325 (Nov 17 2022)   asmfile.asm   26/10/2023  18:12:30        PAGE 32


LOC    OBJECT CODE    LINE  SOURCE TEXT
  VALUE

0439   1507           01520         bsf     PORTC, RC2                                  ; reg: 0x007, bit: 2
043A   1788           01521         bsf     PORTD, RD7                                  ; reg: 0x008, bit: 7
043B   2C8C           01522         goto    label_136
                      01523 
043C                  01524 label_127:                                                  ; address: 0x043c
                      01525 
Message[1302]: RAM Bank undefined in this chunk of code. Ensure that bank bits are correct. Assuming bank 0 from now on.
043C   083D           01526         movf    0x3d, W                                     ; reg: 0x03d
043D   00C1           01527         movwf   0x41                                        ; reg: 0x041
043E   30EC           01528         movlw   0xec
043F   07C1           01529         addwf   0x41, F                                     ; reg: 0x041
0440   0AC1           01530         incf    0x41, F                                     ; reg: 0x041
0441   1D03           01531         btfss   STATUS, Z                                   ; reg: 0x003, bit: 2
0442   2C46           01532         goto    label_128
0443   1487           01533         bsf     PORTC, RC1                                  ; reg: 0x007, bit: 1
0444   1788           01534         bsf     PORTD, RD7                                  ; reg: 0x008, bit: 7
0445   2C8C           01535         goto    label_136
                      01536 
0446                  01537 label_128:                                                  ; address: 0x0446
                      01538 
Message[1302]: RAM Bank undefined in this chunk of code. Ensure that bank bits are correct. Assuming bank 0 from now on.
0446   083D           01539         movf    0x3d, W                                     ; reg: 0x03d
0447   00C1           01540         movwf   0x41                                        ; reg: 0x041
0448   30EB           01541         movlw   0xeb
0449   07C1           01542         addwf   0x41, F                                     ; reg: 0x041
044A   0AC1           01543         incf    0x41, F                                     ; reg: 0x041
044B   1D03           01544         btfss   STATUS, Z                                   ; reg: 0x003, bit: 2
044C   2C50           01545         goto    label_129
044D   1407           01546         bsf     PORTC, RC0                                  ; reg: 0x007, bit: 0
044E   1788           01547         bsf     PORTD, RD7                                  ; reg: 0x008, bit: 7
044F   2C8C           01548         goto    label_136
                      01549 
0450                  01550 label_129:                                                  ; address: 0x0450
                      01551 
Message[1302]: RAM Bank undefined in this chunk of code. Ensure that bank bits are correct. Assuming bank 0 from now on.
0450   083D           01552         movf    0x3d, W                                     ; reg: 0x03d
0451   00C1           01553         movwf   0x41                                        ; reg: 0x041
0452   30EA           01554         movlw   0xea
0453   07C1           01555         addwf   0x41, F                                     ; reg: 0x041
0454   0AC1           01556         incf    0x41, F                                     ; reg: 0x041
0455   1D03           01557         btfss   STATUS, Z                                   ; reg: 0x003, bit: 2
0456   2C5A           01558         goto    label_130
0457   1607           01559         bsf     PORTC, RC4                                  ; reg: 0x007, bit: 4
0458   1788           01560         bsf     PORTD, RD7                                  ; reg: 0x008, bit: 7
0459   2C8C           01561         goto    label_136
                      01562 
045A                  01563 label_130:                                                  ; address: 0x045a
                      01564 
Message[1302]: RAM Bank undefined in this chunk of code. Ensure that bank bits are correct. Assuming bank 0 from now on.
045A   083D           01565         movf    0x3d, W                                     ; reg: 0x03d
045B   00C1           01566         movwf   0x41                                        ; reg: 0x041
045C   30E9           01567         movlw   0xe9
045D   07C1           01568         addwf   0x41, F                                     ; reg: 0x041
gpasm-1.5.2 #1325 (Nov 17 2022)   asmfile.asm   26/10/2023  18:12:30        PAGE 33


LOC    OBJECT CODE    LINE  SOURCE TEXT
  VALUE

045E   0AC1           01569         incf    0x41, F                                     ; reg: 0x041
045F   1D03           01570         btfss   STATUS, Z                                   ; reg: 0x003, bit: 2
0460   2C64           01571         goto    label_131
0461   1687           01572         bsf     PORTC, RC5                                  ; reg: 0x007, bit: 5
0462   1788           01573         bsf     PORTD, RD7                                  ; reg: 0x008, bit: 7
0463   2C8C           01574         goto    label_136
                      01575 
0464                  01576 label_131:                                                  ; address: 0x0464
                      01577 
Message[1302]: RAM Bank undefined in this chunk of code. Ensure that bank bits are correct. Assuming bank 0 from now on.
0464   083D           01578         movf    0x3d, W                                     ; reg: 0x03d
0465   00C1           01579         movwf   0x41                                        ; reg: 0x041
0466   30E8           01580         movlw   0xe8
0467   07C1           01581         addwf   0x41, F                                     ; reg: 0x041
0468   0AC1           01582         incf    0x41, F                                     ; reg: 0x041
0469   1D03           01583         btfss   STATUS, Z                                   ; reg: 0x003, bit: 2
046A   2C6E           01584         goto    label_132
046B   1707           01585         bsf     PORTC, RC6                                  ; reg: 0x007, bit: 6
046C   1788           01586         bsf     PORTD, RD7                                  ; reg: 0x008, bit: 7
046D   2C8C           01587         goto    label_136
                      01588 
046E                  01589 label_132:                                                  ; address: 0x046e
                      01590 
Message[1302]: RAM Bank undefined in this chunk of code. Ensure that bank bits are correct. Assuming bank 0 from now on.
046E   083D           01591         movf    0x3d, W                                     ; reg: 0x03d
046F   00C1           01592         movwf   0x41                                        ; reg: 0x041
0470   30E7           01593         movlw   0xe7
0471   07C1           01594         addwf   0x41, F                                     ; reg: 0x041
0472   0AC1           01595         incf    0x41, F                                     ; reg: 0x041
0473   1D03           01596         btfss   STATUS, Z                                   ; reg: 0x003, bit: 2
0474   2C78           01597         goto    label_133
0475   1787           01598         bsf     PORTC, RC7                                  ; reg: 0x007, bit: 7
0476   1788           01599         bsf     PORTD, RD7                                  ; reg: 0x008, bit: 7
0477   2C8C           01600         goto    label_136
                      01601 
0478                  01602 label_133:                                                  ; address: 0x0478
                      01603 
Message[1302]: RAM Bank undefined in this chunk of code. Ensure that bank bits are correct. Assuming bank 0 from now on.
0478   083D           01604         movf    0x3d, W                                     ; reg: 0x03d
0479   00C1           01605         movwf   0x41                                        ; reg: 0x041
047A   30E6           01606         movlw   0xe6
047B   07C1           01607         addwf   0x41, F                                     ; reg: 0x041
047C   0AC1           01608         incf    0x41, F                                     ; reg: 0x041
047D   1D03           01609         btfss   STATUS, Z                                   ; reg: 0x003, bit: 2
047E   2C82           01610         goto    label_134
047F   1608           01611         bsf     PORTD, RD4                                  ; reg: 0x008, bit: 4
0480   1788           01612         bsf     PORTD, RD7                                  ; reg: 0x008, bit: 7
0481   2C8C           01613         goto    label_136
                      01614 
0482                  01615 label_134:                                                  ; address: 0x0482
                      01616 
Message[1302]: RAM Bank undefined in this chunk of code. Ensure that bank bits are correct. Assuming bank 0 from now on.
0482   083D           01617         movf    0x3d, W                                     ; reg: 0x03d
gpasm-1.5.2 #1325 (Nov 17 2022)   asmfile.asm   26/10/2023  18:12:30        PAGE 34


LOC    OBJECT CODE    LINE  SOURCE TEXT
  VALUE

0483   00C1           01618         movwf   0x41                                        ; reg: 0x041
0484   30E5           01619         movlw   0xe5
0485   07C1           01620         addwf   0x41, F                                     ; reg: 0x041
0486   0AC1           01621         incf    0x41, F                                     ; reg: 0x041
0487   1D03           01622         btfss   STATUS, Z                                   ; reg: 0x003, bit: 2
0488   2C8B           01623         goto    label_135
0489   1587           01624         bsf     PORTC, RC3                                  ; reg: 0x007, bit: 3
048A   1788           01625         bsf     PORTD, RD7                                  ; reg: 0x008, bit: 7
                      01626 
048B                  01627 label_135:                                                  ; address: 0x048b
                      01628 
048B   0000           01629         nop
                      01630 
048C                  01631 label_136:                                                  ; address: 0x048c
                      01632 
048C   0008           01633         return
                      01634 
048D                  01635 function_009:                                               ; address: 0x048d
                      01636 
Message[1302]: RAM Bank undefined in this chunk of code. Ensure that bank bits are correct. Assuming bank 0 from now on.
048D   1143           01637         bcf     0x43, 0x2                                   ; reg: 0x043
048E   1A05           01638         btfsc   PORTA, RA4                                  ; reg: 0x005, bit: 4
048F   2C95           01639         goto    label_137
0490   0F44           01640         incfsz  0x44, W                                     ; reg: 0x044
0491   00C4           01641         movwf   0x44                                        ; reg: 0x044
0492   1FC4           01642         btfss   0x44, 0x7                                   ; reg: 0x044
0493   2C95           01643         goto    label_137
0494   1543           01644         bsf     0x43, 0x2                                   ; reg: 0x043
                      01645 
0495                  01646 label_137:                                                  ; address: 0x0495
                      01647 
0495   0008           01648         return
                      01649 
0496                  01650 function_010:                                               ; address: 0x0496
                      01651 
Message[1302]: RAM Bank undefined in this chunk of code. Ensure that bank bits are correct. Assuming bank 0 from now on.
0496   1407           01652         bsf     PORTC, RC0                                  ; reg: 0x007, bit: 0
0497   1688           01653         bsf     PORTD, RD5                                  ; reg: 0x008, bit: 5
0498   2219           01654         call    function_004
Message[1302]: RAM Bank undefined in this chunk of code. Ensure that bank bits are correct. Assuming bank 0 from now on.
0499   1007           01655         bcf     PORTC, RC0                                  ; reg: 0x007, bit: 0
049A   1288           01656         bcf     PORTD, RD5                                  ; reg: 0x008, bit: 5
049B   2219           01657         call    function_004
049C   0008           01658         return
                      01659 
049D                  01660 function_011:                                               ; address: 0x049d
                      01661 
Message[1302]: RAM Bank undefined in this chunk of code. Ensure that bank bits are correct. Assuming bank 0 from now on.
049D   1407           01662         bsf     PORTC, RC0                                  ; reg: 0x007, bit: 0
049E   1688           01663         bsf     PORTD, RD5                                  ; reg: 0x008, bit: 5
049F   220C           01664         call    function_003
Message[1302]: RAM Bank undefined in this chunk of code. Ensure that bank bits are correct. Assuming bank 0 from now on.
04A0   1007           01665         bcf     PORTC, RC0                                  ; reg: 0x007, bit: 0
gpasm-1.5.2 #1325 (Nov 17 2022)   asmfile.asm   26/10/2023  18:12:30        PAGE 35


LOC    OBJECT CODE    LINE  SOURCE TEXT
  VALUE

04A1   1288           01666         bcf     PORTD, RD5                                  ; reg: 0x008, bit: 5
04A2   220C           01667         call    function_003
04A3   0008           01668         return
                      01669 
04A4                  01670 function_012:                                               ; address: 0x04a4
                      01671 
Message[1302]: RAM Bank undefined in this chunk of code. Ensure that bank bits are correct. Assuming bank 0 from now on.
04A4   1407           01672         bsf     PORTC, RC0                                  ; reg: 0x007, bit: 0
04A5   1708           01673         bsf     PORTD, RD6                                  ; reg: 0x008, bit: 6
04A6   220C           01674         call    function_003
Message[1302]: RAM Bank undefined in this chunk of code. Ensure that bank bits are correct. Assuming bank 0 from now on.
04A7   1007           01675         bcf     PORTC, RC0                                  ; reg: 0x007, bit: 0
04A8   1308           01676         bcf     PORTD, RD6                                  ; reg: 0x008, bit: 6
04A9   220C           01677         call    function_003
04AA   0008           01678         return
                      01679 
04AB                  01680 function_013:                                               ; address: 0x04ab
                      01681 
Message[1302]: RAM Bank undefined in this chunk of code. Ensure that bank bits are correct. Assuming bank 0 from now on.
04AB   0845           01682         movf    0x45, W                                     ; reg: 0x045
04AC   00C6           01683         movwf   0x46                                        ; reg: 0x046
04AD   0008           01684         return
                      01685 
04AE                  01686 function_014:                                               ; address: 0x04ae
                      01687 
Message[1302]: RAM Bank undefined in this chunk of code. Ensure that bank bits are correct. Assuming bank 0 from now on.
04AE   0846           01688         movf    0x46, W                                     ; reg: 0x046
04AF   00C5           01689         movwf   0x45                                        ; reg: 0x045
04B0   0008           01690         return
                      01691 
04B1                  01692 function_015:                                               ; address: 0x04b1
                      01693 
Message[1302]: RAM Bank undefined in this chunk of code. Ensure that bank bits are correct. Assuming bank 0 from now on.
04B1   1507           01694         bsf     PORTC, RC2                                  ; reg: 0x007, bit: 2
04B2   1688           01695         bsf     PORTD, RD5                                  ; reg: 0x008, bit: 5
04B3   2226           01696         call    function_005
04B4   21FC           01697         call    function_002
Message[1302]: RAM Bank undefined in this chunk of code. Ensure that bank bits are correct. Assuming bank 0 from now on.
04B5   1487           01698         bsf     PORTC, RC1                                  ; reg: 0x007, bit: 1
04B6   1688           01699         bsf     PORTD, RD5                                  ; reg: 0x008, bit: 5
04B7   2226           01700         call    function_005
04B8   21FC           01701         call    function_002
Message[1302]: RAM Bank undefined in this chunk of code. Ensure that bank bits are correct. Assuming bank 0 from now on.
04B9   1407           01702         bsf     PORTC, RC0                                  ; reg: 0x007, bit: 0
04BA   1688           01703         bsf     PORTD, RD5                                  ; reg: 0x008, bit: 5
04BB   2226           01704         call    function_005
04BC   21FC           01705         call    function_002
Message[1302]: RAM Bank undefined in this chunk of code. Ensure that bank bits are correct. Assuming bank 0 from now on.
04BD   1607           01706         bsf     PORTC, RC4                                  ; reg: 0x007, bit: 4
04BE   1688           01707         bsf     PORTD, RD5                                  ; reg: 0x008, bit: 5
04BF   2226           01708         call    function_005
04C0   21FC           01709         call    function_002
Message[1302]: RAM Bank undefined in this chunk of code. Ensure that bank bits are correct. Assuming bank 0 from now on.
gpasm-1.5.2 #1325 (Nov 17 2022)   asmfile.asm   26/10/2023  18:12:30        PAGE 36


LOC    OBJECT CODE    LINE  SOURCE TEXT
  VALUE

04C1   1687           01710         bsf     PORTC, RC5                                  ; reg: 0x007, bit: 5
04C2   1688           01711         bsf     PORTD, RD5                                  ; reg: 0x008, bit: 5
04C3   2226           01712         call    function_005
04C4   21FC           01713         call    function_002
Message[1302]: RAM Bank undefined in this chunk of code. Ensure that bank bits are correct. Assuming bank 0 from now on.
04C5   1707           01714         bsf     PORTC, RC6                                  ; reg: 0x007, bit: 6
04C6   1688           01715         bsf     PORTD, RD5                                  ; reg: 0x008, bit: 5
04C7   2226           01716         call    function_005
04C8   21FC           01717         call    function_002
Message[1302]: RAM Bank undefined in this chunk of code. Ensure that bank bits are correct. Assuming bank 0 from now on.
04C9   1787           01718         bsf     PORTC, RC7                                  ; reg: 0x007, bit: 7
04CA   1688           01719         bsf     PORTD, RD5                                  ; reg: 0x008, bit: 5
04CB   2226           01720         call    function_005
04CC   21FC           01721         call    function_002
Message[1302]: RAM Bank undefined in this chunk of code. Ensure that bank bits are correct. Assuming bank 0 from now on.
04CD   1608           01722         bsf     PORTD, RD4                                  ; reg: 0x008, bit: 4
04CE   1688           01723         bsf     PORTD, RD5                                  ; reg: 0x008, bit: 5
04CF   2226           01724         call    function_005
04D0   21FC           01725         call    function_002
Message[1302]: RAM Bank undefined in this chunk of code. Ensure that bank bits are correct. Assuming bank 0 from now on.
04D1   1587           01726         bsf     PORTC, RC3                                  ; reg: 0x007, bit: 3
04D2   1688           01727         bsf     PORTD, RD5                                  ; reg: 0x008, bit: 5
04D3   2226           01728         call    function_005
04D4   21FC           01729         call    function_002
Message[1302]: RAM Bank undefined in this chunk of code. Ensure that bank bits are correct. Assuming bank 0 from now on.
04D5   1507           01730         bsf     PORTC, RC2                                  ; reg: 0x007, bit: 2
04D6   1708           01731         bsf     PORTD, RD6                                  ; reg: 0x008, bit: 6
04D7   2226           01732         call    function_005
04D8   21FC           01733         call    function_002
Message[1302]: RAM Bank undefined in this chunk of code. Ensure that bank bits are correct. Assuming bank 0 from now on.
04D9   1487           01734         bsf     PORTC, RC1                                  ; reg: 0x007, bit: 1
04DA   1708           01735         bsf     PORTD, RD6                                  ; reg: 0x008, bit: 6
04DB   2226           01736         call    function_005
04DC   21FC           01737         call    function_002
Message[1302]: RAM Bank undefined in this chunk of code. Ensure that bank bits are correct. Assuming bank 0 from now on.
04DD   1407           01738         bsf     PORTC, RC0                                  ; reg: 0x007, bit: 0
04DE   1708           01739         bsf     PORTD, RD6                                  ; reg: 0x008, bit: 6
04DF   2226           01740         call    function_005
04E0   21FC           01741         call    function_002
Message[1302]: RAM Bank undefined in this chunk of code. Ensure that bank bits are correct. Assuming bank 0 from now on.
04E1   1607           01742         bsf     PORTC, RC4                                  ; reg: 0x007, bit: 4
04E2   1708           01743         bsf     PORTD, RD6                                  ; reg: 0x008, bit: 6
04E3   2226           01744         call    function_005
04E4   21FC           01745         call    function_002
Message[1302]: RAM Bank undefined in this chunk of code. Ensure that bank bits are correct. Assuming bank 0 from now on.
04E5   1687           01746         bsf     PORTC, RC5                                  ; reg: 0x007, bit: 5
04E6   1708           01747         bsf     PORTD, RD6                                  ; reg: 0x008, bit: 6
04E7   2226           01748         call    function_005
04E8   21FC           01749         call    function_002
Message[1302]: RAM Bank undefined in this chunk of code. Ensure that bank bits are correct. Assuming bank 0 from now on.
04E9   1707           01750         bsf     PORTC, RC6                                  ; reg: 0x007, bit: 6
04EA   1708           01751         bsf     PORTD, RD6                                  ; reg: 0x008, bit: 6
04EB   2226           01752         call    function_005
gpasm-1.5.2 #1325 (Nov 17 2022)   asmfile.asm   26/10/2023  18:12:30        PAGE 37


LOC    OBJECT CODE    LINE  SOURCE TEXT
  VALUE

04EC   21FC           01753         call    function_002
Message[1302]: RAM Bank undefined in this chunk of code. Ensure that bank bits are correct. Assuming bank 0 from now on.
04ED   1787           01754         bsf     PORTC, RC7                                  ; reg: 0x007, bit: 7
04EE   1708           01755         bsf     PORTD, RD6                                  ; reg: 0x008, bit: 6
04EF   2226           01756         call    function_005
04F0   21FC           01757         call    function_002
Message[1302]: RAM Bank undefined in this chunk of code. Ensure that bank bits are correct. Assuming bank 0 from now on.
04F1   1608           01758         bsf     PORTD, RD4                                  ; reg: 0x008, bit: 4
04F2   1708           01759         bsf     PORTD, RD6                                  ; reg: 0x008, bit: 6
04F3   2226           01760         call    function_005
04F4   21FC           01761         call    function_002
Message[1302]: RAM Bank undefined in this chunk of code. Ensure that bank bits are correct. Assuming bank 0 from now on.
04F5   1507           01762         bsf     PORTC, RC2                                  ; reg: 0x007, bit: 2
04F6   1788           01763         bsf     PORTD, RD7                                  ; reg: 0x008, bit: 7
04F7   2226           01764         call    function_005
04F8   21FC           01765         call    function_002
Message[1302]: RAM Bank undefined in this chunk of code. Ensure that bank bits are correct. Assuming bank 0 from now on.
04F9   1487           01766         bsf     PORTC, RC1                                  ; reg: 0x007, bit: 1
04FA   1788           01767         bsf     PORTD, RD7                                  ; reg: 0x008, bit: 7
04FB   2226           01768         call    function_005
04FC   21FC           01769         call    function_002
Message[1302]: RAM Bank undefined in this chunk of code. Ensure that bank bits are correct. Assuming bank 0 from now on.
04FD   1407           01770         bsf     PORTC, RC0                                  ; reg: 0x007, bit: 0
04FE   1788           01771         bsf     PORTD, RD7                                  ; reg: 0x008, bit: 7
04FF   2226           01772         call    function_005
0500   21FC           01773         call    function_002
Message[1302]: RAM Bank undefined in this chunk of code. Ensure that bank bits are correct. Assuming bank 0 from now on.
0501   1607           01774         bsf     PORTC, RC4                                  ; reg: 0x007, bit: 4
0502   1788           01775         bsf     PORTD, RD7                                  ; reg: 0x008, bit: 7
0503   2226           01776         call    function_005
0504   21FC           01777         call    function_002
Message[1302]: RAM Bank undefined in this chunk of code. Ensure that bank bits are correct. Assuming bank 0 from now on.
0505   1687           01778         bsf     PORTC, RC5                                  ; reg: 0x007, bit: 5
0506   1788           01779         bsf     PORTD, RD7                                  ; reg: 0x008, bit: 7
0507   2226           01780         call    function_005
0508   21FC           01781         call    function_002
Message[1302]: RAM Bank undefined in this chunk of code. Ensure that bank bits are correct. Assuming bank 0 from now on.
0509   1707           01782         bsf     PORTC, RC6                                  ; reg: 0x007, bit: 6
050A   1788           01783         bsf     PORTD, RD7                                  ; reg: 0x008, bit: 7
050B   2226           01784         call    function_005
050C   21FC           01785         call    function_002
Message[1302]: RAM Bank undefined in this chunk of code. Ensure that bank bits are correct. Assuming bank 0 from now on.
050D   1787           01786         bsf     PORTC, RC7                                  ; reg: 0x007, bit: 7
050E   1788           01787         bsf     PORTD, RD7                                  ; reg: 0x008, bit: 7
050F   2226           01788         call    function_005
0510   21FC           01789         call    function_002
Message[1302]: RAM Bank undefined in this chunk of code. Ensure that bank bits are correct. Assuming bank 0 from now on.
0511   1608           01790         bsf     PORTD, RD4                                  ; reg: 0x008, bit: 4
0512   1788           01791         bsf     PORTD, RD7                                  ; reg: 0x008, bit: 7
0513   2226           01792         call    function_005
0514   21FC           01793         call    function_002
Message[1302]: RAM Bank undefined in this chunk of code. Ensure that bank bits are correct. Assuming bank 0 from now on.
0515   1587           01794         bsf     PORTC, RC3                                  ; reg: 0x007, bit: 3
gpasm-1.5.2 #1325 (Nov 17 2022)   asmfile.asm   26/10/2023  18:12:30        PAGE 38


LOC    OBJECT CODE    LINE  SOURCE TEXT
  VALUE

0516   1788           01795         bsf     PORTD, RD7                                  ; reg: 0x008, bit: 7
0517   2226           01796         call    function_005
0518   21FC           01797         call    function_002
0519   0008           01798         return
051A   3400           01799         retlw   0x00
051B   3400           01800         retlw   0x00
051C   3EFF           01801         addlw   0xff
051D   3EFF           01802         addlw   0xff
051E   3EFF           01803         addlw   0xff
051F   3EFF           01804         addlw   0xff
0520   3EFF           01805         addlw   0xff
0521   3EFF           01806         addlw   0xff
0522   3EFF           01807         addlw   0xff
0523   3EFF           01808         addlw   0xff
0524   3EFF           01809         addlw   0xff
0525   3EFF           01810         addlw   0xff
0526   3EFF           01811         addlw   0xff
0527   3EFF           01812         addlw   0xff
0528   3EFF           01813         addlw   0xff
0529   3EFF           01814         addlw   0xff
052A   3EFF           01815         addlw   0xff
052B   3EFF           01816         addlw   0xff
052C   3EFF           01817         addlw   0xff
052D   3EFF           01818         addlw   0xff
052E   3EFF           01819         addlw   0xff
052F   3EFF           01820         addlw   0xff
0530   3EFF           01821         addlw   0xff
0531   3EFF           01822         addlw   0xff
0532   3EFF           01823         addlw   0xff
0533   3EFF           01824         addlw   0xff
0534   3EFF           01825         addlw   0xff
0535   3EFF           01826         addlw   0xff
0536   3EFF           01827         addlw   0xff
0537   3EFF           01828         addlw   0xff
0538   3EFF           01829         addlw   0xff
0539   3EFF           01830         addlw   0xff
053A   3EFF           01831         addlw   0xff
053B   3EFF           01832         addlw   0xff
053C   3EFF           01833         addlw   0xff
053D   3EFF           01834         addlw   0xff
053E   3EFF           01835         addlw   0xff
053F   3EFF           01836         addlw   0xff
0540   3EFF           01837         addlw   0xff
0541   3EFF           01838         addlw   0xff
0542   3EFF           01839         addlw   0xff
0543   3EFF           01840         addlw   0xff
0544   3EFF           01841         addlw   0xff
0545   3EFF           01842         addlw   0xff
0546   3EFF           01843         addlw   0xff
0547   3EFF           01844         addlw   0xff
0548   3EFF           01845         addlw   0xff
0549   3EFF           01846         addlw   0xff
054A   3EFF           01847         addlw   0xff
gpasm-1.5.2 #1325 (Nov 17 2022)   asmfile.asm   26/10/2023  18:12:30        PAGE 39


LOC    OBJECT CODE    LINE  SOURCE TEXT
  VALUE

054B   3EFF           01848         addlw   0xff
054C   3EFF           01849         addlw   0xff
054D   3EFF           01850         addlw   0xff
054E   3EFF           01851         addlw   0xff
054F   3EFF           01852         addlw   0xff
0550   3EFF           01853         addlw   0xff
0551   3EFF           01854         addlw   0xff
0552   3EFF           01855         addlw   0xff
0553   3EFF           01856         addlw   0xff
0554   3EFF           01857         addlw   0xff
0555   3EFF           01858         addlw   0xff
0556   3EFF           01859         addlw   0xff
0557   3EFF           01860         addlw   0xff
0558   3EFF           01861         addlw   0xff
0559   3EFF           01862         addlw   0xff
055A   3EFF           01863         addlw   0xff
055B   3EFF           01864         addlw   0xff
055C   3EFF           01865         addlw   0xff
055D   3EFF           01866         addlw   0xff
055E   3EFF           01867         addlw   0xff
055F   3EFF           01868         addlw   0xff
0560   3EFF           01869         addlw   0xff
0561   3EFF           01870         addlw   0xff
0562   3EFF           01871         addlw   0xff
0563   3EFF           01872         addlw   0xff
0564   3EFF           01873         addlw   0xff
0565   3EFF           01874         addlw   0xff
0566   3EFF           01875         addlw   0xff
0567   3EFF           01876         addlw   0xff
0568   3EFF           01877         addlw   0xff
0569   3EFF           01878         addlw   0xff
056A   3EFF           01879         addlw   0xff
056B   3EFF           01880         addlw   0xff
056C   3EFF           01881         addlw   0xff
056D   3EFF           01882         addlw   0xff
056E   3EFF           01883         addlw   0xff
056F   3EFF           01884         addlw   0xff
0570   3EFF           01885         addlw   0xff
0571   3EFF           01886         addlw   0xff
0572   3EFF           01887         addlw   0xff
0573   3EFF           01888         addlw   0xff
0574   3EFF           01889         addlw   0xff
0575   3EFF           01890         addlw   0xff
0576   3EFF           01891         addlw   0xff
0577   3EFF           01892         addlw   0xff
0578   3EFF           01893         addlw   0xff
0579   3EFF           01894         addlw   0xff
057A   3EFF           01895         addlw   0xff
057B   3EFF           01896         addlw   0xff
057C   3EFF           01897         addlw   0xff
057D   3EFF           01898         addlw   0xff
057E   3EFF           01899         addlw   0xff
057F   3EFF           01900         addlw   0xff
gpasm-1.5.2 #1325 (Nov 17 2022)   asmfile.asm   26/10/2023  18:12:30        PAGE 40


LOC    OBJECT CODE    LINE  SOURCE TEXT
  VALUE

0580   3EFF           01901         addlw   0xff
0581   3EFF           01902         addlw   0xff
0582   3EFF           01903         addlw   0xff
0583   3EFF           01904         addlw   0xff
0584   3EFF           01905         addlw   0xff
0585   3EFF           01906         addlw   0xff
0586   3EFF           01907         addlw   0xff
0587   3EFF           01908         addlw   0xff
0588   3EFF           01909         addlw   0xff
0589   3EFF           01910         addlw   0xff
058A   3EFF           01911         addlw   0xff
058B   3EFF           01912         addlw   0xff
058C   3EFF           01913         addlw   0xff
058D   3EFF           01914         addlw   0xff
058E   3EFF           01915         addlw   0xff
058F   3EFF           01916         addlw   0xff
0590   3EFF           01917         addlw   0xff
0591   3EFF           01918         addlw   0xff
0592   3EFF           01919         addlw   0xff
0593   3EFF           01920         addlw   0xff
0594   3EFF           01921         addlw   0xff
0595   3EFF           01922         addlw   0xff
0596   3EFF           01923         addlw   0xff
0597   3EFF           01924         addlw   0xff
0598   3EFF           01925         addlw   0xff
0599   3EFF           01926         addlw   0xff
059A   3EFF           01927         addlw   0xff
059B   3EFF           01928         addlw   0xff
059C   3EFF           01929         addlw   0xff
059D   3EFF           01930         addlw   0xff
059E   3EFF           01931         addlw   0xff
059F   3EFF           01932         addlw   0xff
05A0   3EFF           01933         addlw   0xff
05A1   3EFF           01934         addlw   0xff
05A2   3EFF           01935         addlw   0xff
05A3   3EFF           01936         addlw   0xff
05A4   3EFF           01937         addlw   0xff
05A5   3EFF           01938         addlw   0xff
05A6   3EFF           01939         addlw   0xff
05A7   3EFF           01940         addlw   0xff
05A8   3EFF           01941         addlw   0xff
05A9   3EFF           01942         addlw   0xff
05AA   3EFF           01943         addlw   0xff
05AB   3EFF           01944         addlw   0xff
05AC   3EFF           01945         addlw   0xff
05AD   3EFF           01946         addlw   0xff
05AE   3EFF           01947         addlw   0xff
05AF   3EFF           01948         addlw   0xff
05B0   3EFF           01949         addlw   0xff
05B1   3EFF           01950         addlw   0xff
05B2   3EFF           01951         addlw   0xff
05B3   3EFF           01952         addlw   0xff
05B4   3EFF           01953         addlw   0xff
gpasm-1.5.2 #1325 (Nov 17 2022)   asmfile.asm   26/10/2023  18:12:30        PAGE 41


LOC    OBJECT CODE    LINE  SOURCE TEXT
  VALUE

05B5   3EFF           01954         addlw   0xff
05B6   3EFF           01955         addlw   0xff
05B7   3EFF           01956         addlw   0xff
05B8   3EFF           01957         addlw   0xff
05B9   3EFF           01958         addlw   0xff
05BA   3EFF           01959         addlw   0xff
05BB   3EFF           01960         addlw   0xff
05BC   3EFF           01961         addlw   0xff
05BD   3EFF           01962         addlw   0xff
05BE   3EFF           01963         addlw   0xff
05BF   3EFF           01964         addlw   0xff
05C0   3EFF           01965         addlw   0xff
05C1   3EFF           01966         addlw   0xff
05C2   3EFF           01967         addlw   0xff
05C3   3EFF           01968         addlw   0xff
05C4   3EFF           01969         addlw   0xff
05C5   3EFF           01970         addlw   0xff
05C6   3EFF           01971         addlw   0xff
05C7   3EFF           01972         addlw   0xff
05C8   3EFF           01973         addlw   0xff
05C9   3EFF           01974         addlw   0xff
05CA   3EFF           01975         addlw   0xff
05CB   3EFF           01976         addlw   0xff
05CC   3EFF           01977         addlw   0xff
05CD   3EFF           01978         addlw   0xff
05CE   3EFF           01979         addlw   0xff
05CF   3EFF           01980         addlw   0xff
05D0   3EFF           01981         addlw   0xff
05D1   3EFF           01982         addlw   0xff
05D2   3EFF           01983         addlw   0xff
05D3   3EFF           01984         addlw   0xff
05D4   3EFF           01985         addlw   0xff
05D5   3EFF           01986         addlw   0xff
05D6   3EFF           01987         addlw   0xff
05D7   3EFF           01988         addlw   0xff
05D8   3EFF           01989         addlw   0xff
05D9   3EFF           01990         addlw   0xff
05DA   3EFF           01991         addlw   0xff
05DB   3EFF           01992         addlw   0xff
05DC   3EFF           01993         addlw   0xff
05DD   3EFF           01994         addlw   0xff
05DE   3EFF           01995         addlw   0xff
05DF   3EFF           01996         addlw   0xff
05E0   3EFF           01997         addlw   0xff
05E1   3EFF           01998         addlw   0xff
05E2   3EFF           01999         addlw   0xff
05E3   3EFF           02000         addlw   0xff
05E4   3EFF           02001         addlw   0xff
05E5   3EFF           02002         addlw   0xff
05E6   3EFF           02003         addlw   0xff
05E7   3EFF           02004         addlw   0xff
05E8   3EFF           02005         addlw   0xff
05E9   3EFF           02006         addlw   0xff
gpasm-1.5.2 #1325 (Nov 17 2022)   asmfile.asm   26/10/2023  18:12:30        PAGE 42


LOC    OBJECT CODE    LINE  SOURCE TEXT
  VALUE

05EA   3EFF           02007         addlw   0xff
05EB   3EFF           02008         addlw   0xff
05EC   3EFF           02009         addlw   0xff
05ED   3EFF           02010         addlw   0xff
05EE   3EFF           02011         addlw   0xff
05EF   3EFF           02012         addlw   0xff
05F0   3EFF           02013         addlw   0xff
05F1   3EFF           02014         addlw   0xff
05F2   3EFF           02015         addlw   0xff
05F3   3EFF           02016         addlw   0xff
05F4   3EFF           02017         addlw   0xff
05F5   3EFF           02018         addlw   0xff
05F6   3EFF           02019         addlw   0xff
05F7   3EFF           02020         addlw   0xff
05F8   3EFF           02021         addlw   0xff
05F9   3EFF           02022         addlw   0xff
05FA   3EFF           02023         addlw   0xff
05FB   3EFF           02024         addlw   0xff
05FC   3EFF           02025         addlw   0xff
05FD   3EFF           02026         addlw   0xff
05FE   3EFF           02027         addlw   0xff
05FF   3EFF           02028         addlw   0xff
0600   3EFF           02029         addlw   0xff
0601   3EFF           02030         addlw   0xff
0602   3EFF           02031         addlw   0xff
0603   3EFF           02032         addlw   0xff
0604   3EFF           02033         addlw   0xff
0605   3EFF           02034         addlw   0xff
0606   3EFF           02035         addlw   0xff
0607   3EFF           02036         addlw   0xff
0608   3EFF           02037         addlw   0xff
0609   3EFF           02038         addlw   0xff
060A   3EFF           02039         addlw   0xff
060B   3EFF           02040         addlw   0xff
060C   3EFF           02041         addlw   0xff
060D   3EFF           02042         addlw   0xff
060E   3EFF           02043         addlw   0xff
060F   3EFF           02044         addlw   0xff
0610   3EFF           02045         addlw   0xff
0611   3EFF           02046         addlw   0xff
0612   3EFF           02047         addlw   0xff
0613   3EFF           02048         addlw   0xff
0614   3EFF           02049         addlw   0xff
0615   3EFF           02050         addlw   0xff
0616   3EFF           02051         addlw   0xff
0617   3EFF           02052         addlw   0xff
0618   3EFF           02053         addlw   0xff
0619   3EFF           02054         addlw   0xff
061A   3EFF           02055         addlw   0xff
061B   3EFF           02056         addlw   0xff
061C   3EFF           02057         addlw   0xff
061D   3EFF           02058         addlw   0xff
061E   3EFF           02059         addlw   0xff
gpasm-1.5.2 #1325 (Nov 17 2022)   asmfile.asm   26/10/2023  18:12:30        PAGE 43


LOC    OBJECT CODE    LINE  SOURCE TEXT
  VALUE

061F   3EFF           02060         addlw   0xff
0620   3EFF           02061         addlw   0xff
0621   3EFF           02062         addlw   0xff
0622   3EFF           02063         addlw   0xff
0623   3EFF           02064         addlw   0xff
0624   3EFF           02065         addlw   0xff
0625   3EFF           02066         addlw   0xff
0626   3EFF           02067         addlw   0xff
0627   3EFF           02068         addlw   0xff
0628   3EFF           02069         addlw   0xff
0629   3EFF           02070         addlw   0xff
062A   3EFF           02071         addlw   0xff
062B   3EFF           02072         addlw   0xff
062C   3EFF           02073         addlw   0xff
062D   3EFF           02074         addlw   0xff
062E   3EFF           02075         addlw   0xff
062F   3EFF           02076         addlw   0xff
0630   3EFF           02077         addlw   0xff
0631   3EFF           02078         addlw   0xff
0632   3EFF           02079         addlw   0xff
0633   3EFF           02080         addlw   0xff
0634   3EFF           02081         addlw   0xff
0635   3EFF           02082         addlw   0xff
0636   3EFF           02083         addlw   0xff
0637   3EFF           02084         addlw   0xff
0638   3EFF           02085         addlw   0xff
0639   3EFF           02086         addlw   0xff
063A   3EFF           02087         addlw   0xff
063B   3EFF           02088         addlw   0xff
063C   3EFF           02089         addlw   0xff
063D   3EFF           02090         addlw   0xff
063E   3EFF           02091         addlw   0xff
063F   3EFF           02092         addlw   0xff
0640   3EFF           02093         addlw   0xff
0641   3EFF           02094         addlw   0xff
0642   3EFF           02095         addlw   0xff
0643   3EFF           02096         addlw   0xff
0644   3EFF           02097         addlw   0xff
0645   3EFF           02098         addlw   0xff
0646   3EFF           02099         addlw   0xff
0647   3EFF           02100         addlw   0xff
0648   3EFF           02101         addlw   0xff
0649   3EFF           02102         addlw   0xff
064A   3EFF           02103         addlw   0xff
064B   3EFF           02104         addlw   0xff
064C   3EFF           02105         addlw   0xff
064D   3EFF           02106         addlw   0xff
064E   3EFF           02107         addlw   0xff
064F   3EFF           02108         addlw   0xff
0650   3EFF           02109         addlw   0xff
0651   3EFF           02110         addlw   0xff
0652   3EFF           02111         addlw   0xff
0653   3EFF           02112         addlw   0xff
gpasm-1.5.2 #1325 (Nov 17 2022)   asmfile.asm   26/10/2023  18:12:30        PAGE 44


LOC    OBJECT CODE    LINE  SOURCE TEXT
  VALUE

0654   3EFF           02113         addlw   0xff
0655   3EFF           02114         addlw   0xff
0656   3EFF           02115         addlw   0xff
0657   3EFF           02116         addlw   0xff
0658   3EFF           02117         addlw   0xff
0659   3EFF           02118         addlw   0xff
065A   3EFF           02119         addlw   0xff
065B   3EFF           02120         addlw   0xff
065C   3EFF           02121         addlw   0xff
065D   3EFF           02122         addlw   0xff
065E   3EFF           02123         addlw   0xff
065F   3EFF           02124         addlw   0xff
0660   3EFF           02125         addlw   0xff
0661   3EFF           02126         addlw   0xff
0662   3EFF           02127         addlw   0xff
0663   3EFF           02128         addlw   0xff
0664   3EFF           02129         addlw   0xff
0665   3EFF           02130         addlw   0xff
0666   3EFF           02131         addlw   0xff
0667   3EFF           02132         addlw   0xff
0668   3EFF           02133         addlw   0xff
0669   3EFF           02134         addlw   0xff
066A   3EFF           02135         addlw   0xff
066B   3EFF           02136         addlw   0xff
066C   3EFF           02137         addlw   0xff
066D   3EFF           02138         addlw   0xff
066E   3EFF           02139         addlw   0xff
066F   3EFF           02140         addlw   0xff
0670   3EFF           02141         addlw   0xff
0671   3EFF           02142         addlw   0xff
0672   3EFF           02143         addlw   0xff
0673   3EFF           02144         addlw   0xff
0674   3EFF           02145         addlw   0xff
0675   3EFF           02146         addlw   0xff
0676   3EFF           02147         addlw   0xff
0677   3EFF           02148         addlw   0xff
0678   3EFF           02149         addlw   0xff
0679   3EFF           02150         addlw   0xff
067A   3EFF           02151         addlw   0xff
067B   3EFF           02152         addlw   0xff
067C   3EFF           02153         addlw   0xff
067D   3EFF           02154         addlw   0xff
067E   3EFF           02155         addlw   0xff
067F   3EFF           02156         addlw   0xff
0680   3EFF           02157         addlw   0xff
0681   3EFF           02158         addlw   0xff
0682   3EFF           02159         addlw   0xff
0683   3EFF           02160         addlw   0xff
0684   3EFF           02161         addlw   0xff
0685   3EFF           02162         addlw   0xff
0686   3EFF           02163         addlw   0xff
0687   3EFF           02164         addlw   0xff
0688   3EFF           02165         addlw   0xff
gpasm-1.5.2 #1325 (Nov 17 2022)   asmfile.asm   26/10/2023  18:12:30        PAGE 45


LOC    OBJECT CODE    LINE  SOURCE TEXT
  VALUE

0689   3EFF           02166         addlw   0xff
068A   3EFF           02167         addlw   0xff
068B   3EFF           02168         addlw   0xff
068C   3EFF           02169         addlw   0xff
068D   3EFF           02170         addlw   0xff
068E   3EFF           02171         addlw   0xff
068F   3EFF           02172         addlw   0xff
0690   3EFF           02173         addlw   0xff
0691   3EFF           02174         addlw   0xff
0692   3EFF           02175         addlw   0xff
0693   3EFF           02176         addlw   0xff
0694   3EFF           02177         addlw   0xff
0695   3EFF           02178         addlw   0xff
0696   3EFF           02179         addlw   0xff
0697   3EFF           02180         addlw   0xff
0698   3EFF           02181         addlw   0xff
0699   3EFF           02182         addlw   0xff
069A   3EFF           02183         addlw   0xff
069B   3EFF           02184         addlw   0xff
069C   3EFF           02185         addlw   0xff
069D   3EFF           02186         addlw   0xff
069E   3EFF           02187         addlw   0xff
069F   3EFF           02188         addlw   0xff
06A0   3EFF           02189         addlw   0xff
06A1   3EFF           02190         addlw   0xff
06A2   3EFF           02191         addlw   0xff
06A3   3EFF           02192         addlw   0xff
06A4   3EFF           02193         addlw   0xff
06A5   3EFF           02194         addlw   0xff
06A6   3EFF           02195         addlw   0xff
06A7   3EFF           02196         addlw   0xff
06A8   3EFF           02197         addlw   0xff
06A9   3EFF           02198         addlw   0xff
06AA   3EFF           02199         addlw   0xff
06AB   3EFF           02200         addlw   0xff
06AC   3EFF           02201         addlw   0xff
06AD   3EFF           02202         addlw   0xff
06AE   3EFF           02203         addlw   0xff
06AF   3EFF           02204         addlw   0xff
06B0   3EFF           02205         addlw   0xff
06B1   3EFF           02206         addlw   0xff
06B2   3EFF           02207         addlw   0xff
06B3   3EFF           02208         addlw   0xff
06B4   3EFF           02209         addlw   0xff
06B5   3EFF           02210         addlw   0xff
06B6   3EFF           02211         addlw   0xff
06B7   3EFF           02212         addlw   0xff
06B8   3EFF           02213         addlw   0xff
06B9   3EFF           02214         addlw   0xff
06BA   3EFF           02215         addlw   0xff
06BB   3EFF           02216         addlw   0xff
06BC   3EFF           02217         addlw   0xff
06BD   3EFF           02218         addlw   0xff
gpasm-1.5.2 #1325 (Nov 17 2022)   asmfile.asm   26/10/2023  18:12:30        PAGE 46


LOC    OBJECT CODE    LINE  SOURCE TEXT
  VALUE

06BE   3EFF           02219         addlw   0xff
06BF   3EFF           02220         addlw   0xff
06C0   3EFF           02221         addlw   0xff
06C1   3EFF           02222         addlw   0xff
06C2   3EFF           02223         addlw   0xff
06C3   3EFF           02224         addlw   0xff
06C4   3EFF           02225         addlw   0xff
06C5   3EFF           02226         addlw   0xff
06C6   3EFF           02227         addlw   0xff
06C7   3EFF           02228         addlw   0xff
06C8   3EFF           02229         addlw   0xff
06C9   3EFF           02230         addlw   0xff
06CA   3EFF           02231         addlw   0xff
06CB   3EFF           02232         addlw   0xff
06CC   3EFF           02233         addlw   0xff
06CD   3EFF           02234         addlw   0xff
06CE   3EFF           02235         addlw   0xff
06CF   3EFF           02236         addlw   0xff
06D0   3EFF           02237         addlw   0xff
06D1   3EFF           02238         addlw   0xff
06D2   3EFF           02239         addlw   0xff
06D3   3EFF           02240         addlw   0xff
06D4   3EFF           02241         addlw   0xff
06D5   3EFF           02242         addlw   0xff
06D6   3EFF           02243         addlw   0xff
06D7   3EFF           02244         addlw   0xff
06D8   3EFF           02245         addlw   0xff
06D9   3EFF           02246         addlw   0xff
06DA   3EFF           02247         addlw   0xff
06DB   3EFF           02248         addlw   0xff
06DC   3EFF           02249         addlw   0xff
06DD   3EFF           02250         addlw   0xff
06DE   3EFF           02251         addlw   0xff
06DF   3EFF           02252         addlw   0xff
06E0   3EFF           02253         addlw   0xff
06E1   3EFF           02254         addlw   0xff
06E2   3EFF           02255         addlw   0xff
06E3   3EFF           02256         addlw   0xff
06E4   3EFF           02257         addlw   0xff
06E5   3EFF           02258         addlw   0xff
06E6   3EFF           02259         addlw   0xff
06E7   3EFF           02260         addlw   0xff
06E8   3EFF           02261         addlw   0xff
06E9   3EFF           02262         addlw   0xff
06EA   3EFF           02263         addlw   0xff
06EB   3EFF           02264         addlw   0xff
06EC   3EFF           02265         addlw   0xff
06ED   3EFF           02266         addlw   0xff
06EE   3EFF           02267         addlw   0xff
06EF   3EFF           02268         addlw   0xff
06F0   3EFF           02269         addlw   0xff
06F1   3EFF           02270         addlw   0xff
06F2   3EFF           02271         addlw   0xff
gpasm-1.5.2 #1325 (Nov 17 2022)   asmfile.asm   26/10/2023  18:12:30        PAGE 47


LOC    OBJECT CODE    LINE  SOURCE TEXT
  VALUE

06F3   3EFF           02272         addlw   0xff
06F4   3EFF           02273         addlw   0xff
06F5   3EFF           02274         addlw   0xff
06F6   3EFF           02275         addlw   0xff
06F7   3EFF           02276         addlw   0xff
06F8   3EFF           02277         addlw   0xff
06F9   3EFF           02278         addlw   0xff
06FA   3EFF           02279         addlw   0xff
06FB   3EFF           02280         addlw   0xff
06FC   3EFF           02281         addlw   0xff
06FD   3EFF           02282         addlw   0xff
06FE   3EFF           02283         addlw   0xff
06FF   3EFF           02284         addlw   0xff
0700   3EFF           02285         addlw   0xff
0701   3EFF           02286         addlw   0xff
0702   3EFF           02287         addlw   0xff
0703   3EFF           02288         addlw   0xff
0704   3EFF           02289         addlw   0xff
0705   3EFF           02290         addlw   0xff
0706   3EFF           02291         addlw   0xff
0707   3EFF           02292         addlw   0xff
0708   3EFF           02293         addlw   0xff
0709   3EFF           02294         addlw   0xff
070A   3EFF           02295         addlw   0xff
070B   3EFF           02296         addlw   0xff
070C   3EFF           02297         addlw   0xff
070D   3EFF           02298         addlw   0xff
070E   3EFF           02299         addlw   0xff
070F   3EFF           02300         addlw   0xff
0710   3EFF           02301         addlw   0xff
0711   3EFF           02302         addlw   0xff
0712   3EFF           02303         addlw   0xff
0713   3EFF           02304         addlw   0xff
0714   3EFF           02305         addlw   0xff
0715   3EFF           02306         addlw   0xff
0716   3EFF           02307         addlw   0xff
0717   3EFF           02308         addlw   0xff
0718   3EFF           02309         addlw   0xff
0719   3EFF           02310         addlw   0xff
071A   3EFF           02311         addlw   0xff
071B   3EFF           02312         addlw   0xff
071C   3EFF           02313         addlw   0xff
071D   3EFF           02314         addlw   0xff
071E   3EFF           02315         addlw   0xff
071F   3EFF           02316         addlw   0xff
0720   3EFF           02317         addlw   0xff
0721   3EFF           02318         addlw   0xff
0722   3EFF           02319         addlw   0xff
0723   3EFF           02320         addlw   0xff
0724   3EFF           02321         addlw   0xff
0725   3EFF           02322         addlw   0xff
0726   3EFF           02323         addlw   0xff
0727   3EFF           02324         addlw   0xff
gpasm-1.5.2 #1325 (Nov 17 2022)   asmfile.asm   26/10/2023  18:12:30        PAGE 48


LOC    OBJECT CODE    LINE  SOURCE TEXT
  VALUE

0728   3EFF           02325         addlw   0xff
0729   3EFF           02326         addlw   0xff
072A   3EFF           02327         addlw   0xff
072B   3EFF           02328         addlw   0xff
072C   3EFF           02329         addlw   0xff
072D   3EFF           02330         addlw   0xff
072E   3EFF           02331         addlw   0xff
072F   3EFF           02332         addlw   0xff
0730   3EFF           02333         addlw   0xff
0731   3EFF           02334         addlw   0xff
0732   3EFF           02335         addlw   0xff
0733   3EFF           02336         addlw   0xff
0734   3EFF           02337         addlw   0xff
0735   3EFF           02338         addlw   0xff
0736   3EFF           02339         addlw   0xff
0737   3EFF           02340         addlw   0xff
0738   3EFF           02341         addlw   0xff
0739   3EFF           02342         addlw   0xff
073A   3EFF           02343         addlw   0xff
073B   3EFF           02344         addlw   0xff
073C   3EFF           02345         addlw   0xff
073D   3EFF           02346         addlw   0xff
073E   3EFF           02347         addlw   0xff
073F   3EFF           02348         addlw   0xff
0740   3EFF           02349         addlw   0xff
0741   3EFF           02350         addlw   0xff
0742   3EFF           02351         addlw   0xff
0743   3EFF           02352         addlw   0xff
0744   3EFF           02353         addlw   0xff
0745   3EFF           02354         addlw   0xff
0746   3EFF           02355         addlw   0xff
0747   3EFF           02356         addlw   0xff
0748   3EFF           02357         addlw   0xff
0749   3EFF           02358         addlw   0xff
074A   3EFF           02359         addlw   0xff
074B   3EFF           02360         addlw   0xff
074C   3EFF           02361         addlw   0xff
074D   3EFF           02362         addlw   0xff
074E   3EFF           02363         addlw   0xff
074F   3EFF           02364         addlw   0xff
0750   3EFF           02365         addlw   0xff
0751   3EFF           02366         addlw   0xff
0752   3EFF           02367         addlw   0xff
0753   3EFF           02368         addlw   0xff
0754   3EFF           02369         addlw   0xff
0755   3EFF           02370         addlw   0xff
0756   3EFF           02371         addlw   0xff
0757   3EFF           02372         addlw   0xff
0758   3EFF           02373         addlw   0xff
0759   3EFF           02374         addlw   0xff
075A   3EFF           02375         addlw   0xff
075B   3EFF           02376         addlw   0xff
075C   3EFF           02377         addlw   0xff
gpasm-1.5.2 #1325 (Nov 17 2022)   asmfile.asm   26/10/2023  18:12:30        PAGE 49


LOC    OBJECT CODE    LINE  SOURCE TEXT
  VALUE

075D   3EFF           02378         addlw   0xff
075E   3EFF           02379         addlw   0xff
075F   3EFF           02380         addlw   0xff
0760   3EFF           02381         addlw   0xff
0761   3EFF           02382         addlw   0xff
0762   3EFF           02383         addlw   0xff
0763   3EFF           02384         addlw   0xff
0764   3EFF           02385         addlw   0xff
0765   3EFF           02386         addlw   0xff
0766   3EFF           02387         addlw   0xff
0767   3EFF           02388         addlw   0xff
0768   3EFF           02389         addlw   0xff
0769   3EFF           02390         addlw   0xff
076A   3EFF           02391         addlw   0xff
076B   3EFF           02392         addlw   0xff
076C   3EFF           02393         addlw   0xff
076D   3EFF           02394         addlw   0xff
076E   3EFF           02395         addlw   0xff
076F   3EFF           02396         addlw   0xff
0770   3EFF           02397         addlw   0xff
0771   3EFF           02398         addlw   0xff
0772   3EFF           02399         addlw   0xff
0773   3EFF           02400         addlw   0xff
0774   3EFF           02401         addlw   0xff
0775   3EFF           02402         addlw   0xff
0776   3EFF           02403         addlw   0xff
0777   3EFF           02404         addlw   0xff
0778   3EFF           02405         addlw   0xff
0779   3EFF           02406         addlw   0xff
077A   3EFF           02407         addlw   0xff
077B   3EFF           02408         addlw   0xff
077C   3EFF           02409         addlw   0xff
077D   3EFF           02410         addlw   0xff
077E   3EFF           02411         addlw   0xff
077F   3EFF           02412         addlw   0xff
0780   3EFF           02413         addlw   0xff
0781   3EFF           02414         addlw   0xff
0782   3EFF           02415         addlw   0xff
0783   3EFF           02416         addlw   0xff
0784   3EFF           02417         addlw   0xff
0785   3EFF           02418         addlw   0xff
0786   3EFF           02419         addlw   0xff
0787   3EFF           02420         addlw   0xff
0788   3EFF           02421         addlw   0xff
0789   3EFF           02422         addlw   0xff
078A   3EFF           02423         addlw   0xff
078B   3EFF           02424         addlw   0xff
078C   3EFF           02425         addlw   0xff
078D   3EFF           02426         addlw   0xff
078E   3EFF           02427         addlw   0xff
078F   3EFF           02428         addlw   0xff
0790   3EFF           02429         addlw   0xff
0791   3EFF           02430         addlw   0xff
gpasm-1.5.2 #1325 (Nov 17 2022)   asmfile.asm   26/10/2023  18:12:30        PAGE 50


LOC    OBJECT CODE    LINE  SOURCE TEXT
  VALUE

0792   3EFF           02431         addlw   0xff
0793   3EFF           02432         addlw   0xff
0794   3EFF           02433         addlw   0xff
0795   3EFF           02434         addlw   0xff
0796   3EFF           02435         addlw   0xff
0797   3EFF           02436         addlw   0xff
0798   3EFF           02437         addlw   0xff
0799   3EFF           02438         addlw   0xff
079A   3EFF           02439         addlw   0xff
079B   3EFF           02440         addlw   0xff
079C   3EFF           02441         addlw   0xff
079D   3EFF           02442         addlw   0xff
079E   3EFF           02443         addlw   0xff
079F   3EFF           02444         addlw   0xff
07A0   3EFF           02445         addlw   0xff
07A1   3EFF           02446         addlw   0xff
07A2   3EFF           02447         addlw   0xff
07A3   3EFF           02448         addlw   0xff
07A4   3EFF           02449         addlw   0xff
07A5   3EFF           02450         addlw   0xff
07A6   3EFF           02451         addlw   0xff
07A7   3EFF           02452         addlw   0xff
07A8   3EFF           02453         addlw   0xff
07A9   3EFF           02454         addlw   0xff
07AA   3EFF           02455         addlw   0xff
07AB   3EFF           02456         addlw   0xff
07AC   3EFF           02457         addlw   0xff
07AD   3EFF           02458         addlw   0xff
07AE   3EFF           02459         addlw   0xff
07AF   3EFF           02460         addlw   0xff
07B0   3EFF           02461         addlw   0xff
07B1   3EFF           02462         addlw   0xff
07B2   3EFF           02463         addlw   0xff
07B3   3EFF           02464         addlw   0xff
07B4   3EFF           02465         addlw   0xff
07B5   3EFF           02466         addlw   0xff
07B6   3EFF           02467         addlw   0xff
07B7   3EFF           02468         addlw   0xff
07B8   3EFF           02469         addlw   0xff
07B9   3EFF           02470         addlw   0xff
07BA   3EFF           02471         addlw   0xff
07BB   3EFF           02472         addlw   0xff
07BC   3EFF           02473         addlw   0xff
07BD   3EFF           02474         addlw   0xff
07BE   3EFF           02475         addlw   0xff
07BF   3EFF           02476         addlw   0xff
07C0   3EFF           02477         addlw   0xff
07C1   3EFF           02478         addlw   0xff
07C2   3EFF           02479         addlw   0xff
07C3   3EFF           02480         addlw   0xff
07C4   3EFF           02481         addlw   0xff
07C5   3EFF           02482         addlw   0xff
07C6   3EFF           02483         addlw   0xff
gpasm-1.5.2 #1325 (Nov 17 2022)   asmfile.asm   26/10/2023  18:12:30        PAGE 51


LOC    OBJECT CODE    LINE  SOURCE TEXT
  VALUE

07C7   3EFF           02484         addlw   0xff
07C8   3EFF           02485         addlw   0xff
07C9   3EFF           02486         addlw   0xff
07CA   3EFF           02487         addlw   0xff
07CB   3EFF           02488         addlw   0xff
07CC   3EFF           02489         addlw   0xff
07CD   3EFF           02490         addlw   0xff
07CE   3EFF           02491         addlw   0xff
07CF   3EFF           02492         addlw   0xff
07D0   3EFF           02493         addlw   0xff
07D1   3EFF           02494         addlw   0xff
07D2   3EFF           02495         addlw   0xff
07D3   3EFF           02496         addlw   0xff
07D4   3EFF           02497         addlw   0xff
07D5   3EFF           02498         addlw   0xff
07D6   3EFF           02499         addlw   0xff
07D7   3EFF           02500         addlw   0xff
07D8   3EFF           02501         addlw   0xff
07D9   3EFF           02502         addlw   0xff
07DA   3EFF           02503         addlw   0xff
07DB   3EFF           02504         addlw   0xff
07DC   3EFF           02505         addlw   0xff
07DD   3EFF           02506         addlw   0xff
07DE   3EFF           02507         addlw   0xff
07DF   3EFF           02508         addlw   0xff
07E0   3EFF           02509         addlw   0xff
07E1   3EFF           02510         addlw   0xff
07E2   3EFF           02511         addlw   0xff
07E3   3EFF           02512         addlw   0xff
07E4   3EFF           02513         addlw   0xff
07E5   3EFF           02514         addlw   0xff
07E6   3EFF           02515         addlw   0xff
07E7   3EFF           02516         addlw   0xff
07E8   3EFF           02517         addlw   0xff
07E9   3EFF           02518         addlw   0xff
07EA   3EFF           02519         addlw   0xff
07EB   3EFF           02520         addlw   0xff
07EC   3EFF           02521         addlw   0xff
07ED   3EFF           02522         addlw   0xff
07EE   3EFF           02523         addlw   0xff
07EF   3EFF           02524         addlw   0xff
07F0   3EFF           02525         addlw   0xff
07F1   3EFF           02526         addlw   0xff
07F2   3EFF           02527         addlw   0xff
07F3   3EFF           02528         addlw   0xff
07F4   3EFF           02529         addlw   0xff
07F5   3EFF           02530         addlw   0xff
07F6   3EFF           02531         addlw   0xff
07F7   3EFF           02532         addlw   0xff
07F8   3EFF           02533         addlw   0xff
07F9   3EFF           02534         addlw   0xff
07FA   3EFF           02535         addlw   0xff
07FB   3EFF           02536         addlw   0xff
gpasm-1.5.2 #1325 (Nov 17 2022)   asmfile.asm   26/10/2023  18:12:30        PAGE 52


LOC    OBJECT CODE    LINE  SOURCE TEXT
  VALUE

07FC   3EFF           02537         addlw   0xff
07FD   3EFF           02538         addlw   0xff
07FE   3EFF           02539         addlw   0xff
07FF   3EFF           02540         addlw   0xff
0800   3EFF           02541         addlw   0xff
0801   3EFF           02542         addlw   0xff
0802   3EFF           02543         addlw   0xff
0803   3EFF           02544         addlw   0xff
0804   3EFF           02545         addlw   0xff
0805   3EFF           02546         addlw   0xff
0806   3EFF           02547         addlw   0xff
0807   3EFF           02548         addlw   0xff
0808   3EFF           02549         addlw   0xff
0809   3EFF           02550         addlw   0xff
080A   3EFF           02551         addlw   0xff
080B   3EFF           02552         addlw   0xff
080C   3EFF           02553         addlw   0xff
080D   3EFF           02554         addlw   0xff
080E   3EFF           02555         addlw   0xff
080F   3EFF           02556         addlw   0xff
0810   3EFF           02557         addlw   0xff
0811   3EFF           02558         addlw   0xff
0812   3EFF           02559         addlw   0xff
0813   3EFF           02560         addlw   0xff
0814   3EFF           02561         addlw   0xff
0815   3EFF           02562         addlw   0xff
0816   3EFF           02563         addlw   0xff
0817   3EFF           02564         addlw   0xff
0818   3EFF           02565         addlw   0xff
0819   3EFF           02566         addlw   0xff
081A   3EFF           02567         addlw   0xff
081B   3EFF           02568         addlw   0xff
081C   3EFF           02569         addlw   0xff
081D   3EFF           02570         addlw   0xff
081E   3EFF           02571         addlw   0xff
081F   3EFF           02572         addlw   0xff
0820   3EFF           02573         addlw   0xff
0821   3EFF           02574         addlw   0xff
0822   3EFF           02575         addlw   0xff
0823   3EFF           02576         addlw   0xff
0824   3EFF           02577         addlw   0xff
0825   3EFF           02578         addlw   0xff
0826   3EFF           02579         addlw   0xff
0827   3EFF           02580         addlw   0xff
0828   3EFF           02581         addlw   0xff
0829   3EFF           02582         addlw   0xff
082A   3EFF           02583         addlw   0xff
082B   3EFF           02584         addlw   0xff
082C   3EFF           02585         addlw   0xff
082D   3EFF           02586         addlw   0xff
082E   3EFF           02587         addlw   0xff
082F   3EFF           02588         addlw   0xff
0830   3EFF           02589         addlw   0xff
gpasm-1.5.2 #1325 (Nov 17 2022)   asmfile.asm   26/10/2023  18:12:30        PAGE 53


LOC    OBJECT CODE    LINE  SOURCE TEXT
  VALUE

0831   3EFF           02590         addlw   0xff
0832   3EFF           02591         addlw   0xff
0833   3EFF           02592         addlw   0xff
0834   3EFF           02593         addlw   0xff
0835   3EFF           02594         addlw   0xff
0836   3EFF           02595         addlw   0xff
0837   3EFF           02596         addlw   0xff
0838   3EFF           02597         addlw   0xff
0839   3EFF           02598         addlw   0xff
083A   3EFF           02599         addlw   0xff
083B   3EFF           02600         addlw   0xff
083C   3EFF           02601         addlw   0xff
083D   3EFF           02602         addlw   0xff
083E   3EFF           02603         addlw   0xff
083F   3EFF           02604         addlw   0xff
0840   3EFF           02605         addlw   0xff
0841   3EFF           02606         addlw   0xff
0842   3EFF           02607         addlw   0xff
0843   3EFF           02608         addlw   0xff
0844   3EFF           02609         addlw   0xff
0845   3EFF           02610         addlw   0xff
0846   3EFF           02611         addlw   0xff
0847   3EFF           02612         addlw   0xff
0848   3EFF           02613         addlw   0xff
0849   3EFF           02614         addlw   0xff
084A   3EFF           02615         addlw   0xff
084B   3EFF           02616         addlw   0xff
084C   3EFF           02617         addlw   0xff
084D   3EFF           02618         addlw   0xff
084E   3EFF           02619         addlw   0xff
084F   3EFF           02620         addlw   0xff
0850   3EFF           02621         addlw   0xff
0851   3EFF           02622         addlw   0xff
0852   3EFF           02623         addlw   0xff
0853   3EFF           02624         addlw   0xff
0854   3EFF           02625         addlw   0xff
0855   3EFF           02626         addlw   0xff
0856   3EFF           02627         addlw   0xff
0857   3EFF           02628         addlw   0xff
0858   3EFF           02629         addlw   0xff
0859   3EFF           02630         addlw   0xff
085A   3EFF           02631         addlw   0xff
085B   3EFF           02632         addlw   0xff
085C   3EFF           02633         addlw   0xff
085D   3EFF           02634         addlw   0xff
085E   3EFF           02635         addlw   0xff
085F   3EFF           02636         addlw   0xff
0860   3EFF           02637         addlw   0xff
0861   3EFF           02638         addlw   0xff
0862   3EFF           02639         addlw   0xff
0863   3EFF           02640         addlw   0xff
0864   3EFF           02641         addlw   0xff
0865   3EFF           02642         addlw   0xff
gpasm-1.5.2 #1325 (Nov 17 2022)   asmfile.asm   26/10/2023  18:12:30        PAGE 54


LOC    OBJECT CODE    LINE  SOURCE TEXT
  VALUE

0866   3EFF           02643         addlw   0xff
0867   3EFF           02644         addlw   0xff
0868   3EFF           02645         addlw   0xff
0869   3EFF           02646         addlw   0xff
086A   3EFF           02647         addlw   0xff
086B   3EFF           02648         addlw   0xff
086C   3EFF           02649         addlw   0xff
086D   3EFF           02650         addlw   0xff
086E   3EFF           02651         addlw   0xff
086F   3EFF           02652         addlw   0xff
0870   3EFF           02653         addlw   0xff
0871   3EFF           02654         addlw   0xff
0872   3EFF           02655         addlw   0xff
0873   3EFF           02656         addlw   0xff
0874   3EFF           02657         addlw   0xff
0875   3EFF           02658         addlw   0xff
0876   3EFF           02659         addlw   0xff
0877   3EFF           02660         addlw   0xff
0878   3EFF           02661         addlw   0xff
0879   3EFF           02662         addlw   0xff
087A   3EFF           02663         addlw   0xff
087B   3EFF           02664         addlw   0xff
087C   3EFF           02665         addlw   0xff
087D   3EFF           02666         addlw   0xff
087E   3EFF           02667         addlw   0xff
087F   3EFF           02668         addlw   0xff
0880   3EFF           02669         addlw   0xff
0881   3EFF           02670         addlw   0xff
0882   3EFF           02671         addlw   0xff
0883   3EFF           02672         addlw   0xff
0884   3EFF           02673         addlw   0xff
0885   3EFF           02674         addlw   0xff
0886   3EFF           02675         addlw   0xff
0887   3EFF           02676         addlw   0xff
0888   3EFF           02677         addlw   0xff
0889   3EFF           02678         addlw   0xff
088A   3EFF           02679         addlw   0xff
088B   3EFF           02680         addlw   0xff
088C   3EFF           02681         addlw   0xff
088D   3EFF           02682         addlw   0xff
088E   3EFF           02683         addlw   0xff
088F   3EFF           02684         addlw   0xff
0890   3EFF           02685         addlw   0xff
0891   3EFF           02686         addlw   0xff
0892   3EFF           02687         addlw   0xff
0893   3EFF           02688         addlw   0xff
0894   3EFF           02689         addlw   0xff
0895   3EFF           02690         addlw   0xff
0896   3EFF           02691         addlw   0xff
0897   3EFF           02692         addlw   0xff
0898   3EFF           02693         addlw   0xff
0899   3EFF           02694         addlw   0xff
089A   3EFF           02695         addlw   0xff
gpasm-1.5.2 #1325 (Nov 17 2022)   asmfile.asm   26/10/2023  18:12:30        PAGE 55


LOC    OBJECT CODE    LINE  SOURCE TEXT
  VALUE

089B   3EFF           02696         addlw   0xff
089C   3EFF           02697         addlw   0xff
089D   3EFF           02698         addlw   0xff
089E   3EFF           02699         addlw   0xff
089F   3EFF           02700         addlw   0xff
08A0   3EFF           02701         addlw   0xff
08A1   3EFF           02702         addlw   0xff
08A2   3EFF           02703         addlw   0xff
08A3   3EFF           02704         addlw   0xff
08A4   3EFF           02705         addlw   0xff
08A5   3EFF           02706         addlw   0xff
08A6   3EFF           02707         addlw   0xff
08A7   3EFF           02708         addlw   0xff
08A8   3EFF           02709         addlw   0xff
08A9   3EFF           02710         addlw   0xff
08AA   3EFF           02711         addlw   0xff
08AB   3EFF           02712         addlw   0xff
08AC   3EFF           02713         addlw   0xff
08AD   3EFF           02714         addlw   0xff
08AE   3EFF           02715         addlw   0xff
08AF   3EFF           02716         addlw   0xff
08B0   3EFF           02717         addlw   0xff
08B1   3EFF           02718         addlw   0xff
08B2   3EFF           02719         addlw   0xff
08B3   3EFF           02720         addlw   0xff
08B4   3EFF           02721         addlw   0xff
08B5   3EFF           02722         addlw   0xff
08B6   3EFF           02723         addlw   0xff
08B7   3EFF           02724         addlw   0xff
08B8   3EFF           02725         addlw   0xff
08B9   3EFF           02726         addlw   0xff
08BA   3EFF           02727         addlw   0xff
08BB   3EFF           02728         addlw   0xff
08BC   3EFF           02729         addlw   0xff
08BD   3EFF           02730         addlw   0xff
08BE   3EFF           02731         addlw   0xff
08BF   3EFF           02732         addlw   0xff
08C0   3EFF           02733         addlw   0xff
08C1   3EFF           02734         addlw   0xff
08C2   3EFF           02735         addlw   0xff
08C3   3EFF           02736         addlw   0xff
08C4   3EFF           02737         addlw   0xff
08C5   3EFF           02738         addlw   0xff
08C6   3EFF           02739         addlw   0xff
08C7   3EFF           02740         addlw   0xff
08C8   3EFF           02741         addlw   0xff
08C9   3EFF           02742         addlw   0xff
08CA   3EFF           02743         addlw   0xff
08CB   3EFF           02744         addlw   0xff
08CC   3EFF           02745         addlw   0xff
08CD   3EFF           02746         addlw   0xff
08CE   3EFF           02747         addlw   0xff
08CF   3EFF           02748         addlw   0xff
gpasm-1.5.2 #1325 (Nov 17 2022)   asmfile.asm   26/10/2023  18:12:30        PAGE 56


LOC    OBJECT CODE    LINE  SOURCE TEXT
  VALUE

08D0   3EFF           02749         addlw   0xff
08D1   3EFF           02750         addlw   0xff
08D2   3EFF           02751         addlw   0xff
08D3   3EFF           02752         addlw   0xff
08D4   3EFF           02753         addlw   0xff
08D5   3EFF           02754         addlw   0xff
08D6   3EFF           02755         addlw   0xff
08D7   3EFF           02756         addlw   0xff
08D8   3EFF           02757         addlw   0xff
08D9   3EFF           02758         addlw   0xff
08DA   3EFF           02759         addlw   0xff
08DB   3EFF           02760         addlw   0xff
08DC   3EFF           02761         addlw   0xff
08DD   3EFF           02762         addlw   0xff
08DE   3EFF           02763         addlw   0xff
08DF   3EFF           02764         addlw   0xff
08E0   3EFF           02765         addlw   0xff
08E1   3EFF           02766         addlw   0xff
08E2   3EFF           02767         addlw   0xff
08E3   3EFF           02768         addlw   0xff
08E4   3EFF           02769         addlw   0xff
08E5   3EFF           02770         addlw   0xff
08E6   3EFF           02771         addlw   0xff
08E7   3EFF           02772         addlw   0xff
08E8   3EFF           02773         addlw   0xff
08E9   3EFF           02774         addlw   0xff
08EA   3EFF           02775         addlw   0xff
08EB   3EFF           02776         addlw   0xff
08EC   3EFF           02777         addlw   0xff
08ED   3EFF           02778         addlw   0xff
08EE   3EFF           02779         addlw   0xff
08EF   3EFF           02780         addlw   0xff
08F0   3EFF           02781         addlw   0xff
08F1   3EFF           02782         addlw   0xff
08F2   3EFF           02783         addlw   0xff
08F3   3EFF           02784         addlw   0xff
08F4   3EFF           02785         addlw   0xff
08F5   3EFF           02786         addlw   0xff
08F6   3EFF           02787         addlw   0xff
08F7   3EFF           02788         addlw   0xff
08F8   3EFF           02789         addlw   0xff
08F9   3EFF           02790         addlw   0xff
08FA   3EFF           02791         addlw   0xff
08FB   3EFF           02792         addlw   0xff
08FC   3EFF           02793         addlw   0xff
08FD   3EFF           02794         addlw   0xff
08FE   3EFF           02795         addlw   0xff
08FF   3EFF           02796         addlw   0xff
0900   3EFF           02797         addlw   0xff
0901   3EFF           02798         addlw   0xff
0902   3EFF           02799         addlw   0xff
0903   3EFF           02800         addlw   0xff
0904   3EFF           02801         addlw   0xff
gpasm-1.5.2 #1325 (Nov 17 2022)   asmfile.asm   26/10/2023  18:12:30        PAGE 57


LOC    OBJECT CODE    LINE  SOURCE TEXT
  VALUE

0905   3EFF           02802         addlw   0xff
0906   3EFF           02803         addlw   0xff
0907   3EFF           02804         addlw   0xff
0908   3EFF           02805         addlw   0xff
0909   3EFF           02806         addlw   0xff
090A   3EFF           02807         addlw   0xff
090B   3EFF           02808         addlw   0xff
090C   3EFF           02809         addlw   0xff
090D   3EFF           02810         addlw   0xff
090E   3EFF           02811         addlw   0xff
090F   3EFF           02812         addlw   0xff
0910   3EFF           02813         addlw   0xff
0911   3EFF           02814         addlw   0xff
0912   3EFF           02815         addlw   0xff
0913   3EFF           02816         addlw   0xff
0914   3EFF           02817         addlw   0xff
0915   3EFF           02818         addlw   0xff
0916   3EFF           02819         addlw   0xff
0917   3EFF           02820         addlw   0xff
0918   3EFF           02821         addlw   0xff
0919   3EFF           02822         addlw   0xff
091A   3EFF           02823         addlw   0xff
091B   3EFF           02824         addlw   0xff
091C   3EFF           02825         addlw   0xff
091D   3EFF           02826         addlw   0xff
091E   3EFF           02827         addlw   0xff
091F   3EFF           02828         addlw   0xff
0920   3EFF           02829         addlw   0xff
0921   3EFF           02830         addlw   0xff
0922   3EFF           02831         addlw   0xff
0923   3EFF           02832         addlw   0xff
0924   3EFF           02833         addlw   0xff
0925   3EFF           02834         addlw   0xff
0926   3EFF           02835         addlw   0xff
0927   3EFF           02836         addlw   0xff
0928   3EFF           02837         addlw   0xff
0929   3EFF           02838         addlw   0xff
092A   3EFF           02839         addlw   0xff
092B   3EFF           02840         addlw   0xff
092C   3EFF           02841         addlw   0xff
092D   3EFF           02842         addlw   0xff
092E   3EFF           02843         addlw   0xff
092F   3EFF           02844         addlw   0xff
0930   3EFF           02845         addlw   0xff
0931   3EFF           02846         addlw   0xff
0932   3EFF           02847         addlw   0xff
0933   3EFF           02848         addlw   0xff
0934   3EFF           02849         addlw   0xff
0935   3EFF           02850         addlw   0xff
0936   3EFF           02851         addlw   0xff
0937   3EFF           02852         addlw   0xff
0938   3EFF           02853         addlw   0xff
0939   3EFF           02854         addlw   0xff
gpasm-1.5.2 #1325 (Nov 17 2022)   asmfile.asm   26/10/2023  18:12:30        PAGE 58


LOC    OBJECT CODE    LINE  SOURCE TEXT
  VALUE

093A   3EFF           02855         addlw   0xff
093B   3EFF           02856         addlw   0xff
093C   3EFF           02857         addlw   0xff
093D   3EFF           02858         addlw   0xff
093E   3EFF           02859         addlw   0xff
093F   3EFF           02860         addlw   0xff
0940   3EFF           02861         addlw   0xff
0941   3EFF           02862         addlw   0xff
0942   3EFF           02863         addlw   0xff
0943   3EFF           02864         addlw   0xff
0944   3EFF           02865         addlw   0xff
0945   3EFF           02866         addlw   0xff
0946   3EFF           02867         addlw   0xff
0947   3EFF           02868         addlw   0xff
0948   3EFF           02869         addlw   0xff
0949   3EFF           02870         addlw   0xff
094A   3EFF           02871         addlw   0xff
094B   3EFF           02872         addlw   0xff
094C   3EFF           02873         addlw   0xff
094D   3EFF           02874         addlw   0xff
094E   3EFF           02875         addlw   0xff
094F   3EFF           02876         addlw   0xff
0950   3EFF           02877         addlw   0xff
0951   3EFF           02878         addlw   0xff
0952   3EFF           02879         addlw   0xff
0953   3EFF           02880         addlw   0xff
0954   3EFF           02881         addlw   0xff
0955   3EFF           02882         addlw   0xff
0956   3EFF           02883         addlw   0xff
0957   3EFF           02884         addlw   0xff
0958   3EFF           02885         addlw   0xff
0959   3EFF           02886         addlw   0xff
095A   3EFF           02887         addlw   0xff
095B   3EFF           02888         addlw   0xff
095C   3EFF           02889         addlw   0xff
095D   3EFF           02890         addlw   0xff
095E   3EFF           02891         addlw   0xff
095F   3EFF           02892         addlw   0xff
0960   3EFF           02893         addlw   0xff
0961   3EFF           02894         addlw   0xff
0962   3EFF           02895         addlw   0xff
0963   3EFF           02896         addlw   0xff
0964   3EFF           02897         addlw   0xff
0965   3EFF           02898         addlw   0xff
0966   3EFF           02899         addlw   0xff
0967   3EFF           02900         addlw   0xff
0968   3EFF           02901         addlw   0xff
0969   3EFF           02902         addlw   0xff
096A   3EFF           02903         addlw   0xff
096B   3EFF           02904         addlw   0xff
096C   3EFF           02905         addlw   0xff
096D   3EFF           02906         addlw   0xff
096E   3EFF           02907         addlw   0xff
gpasm-1.5.2 #1325 (Nov 17 2022)   asmfile.asm   26/10/2023  18:12:30        PAGE 59


LOC    OBJECT CODE    LINE  SOURCE TEXT
  VALUE

096F   3EFF           02908         addlw   0xff
0970   3EFF           02909         addlw   0xff
0971   3EFF           02910         addlw   0xff
0972   3EFF           02911         addlw   0xff
0973   3EFF           02912         addlw   0xff
0974   3EFF           02913         addlw   0xff
0975   3EFF           02914         addlw   0xff
0976   3EFF           02915         addlw   0xff
0977   3EFF           02916         addlw   0xff
0978   3EFF           02917         addlw   0xff
0979   3EFF           02918         addlw   0xff
097A   3EFF           02919         addlw   0xff
097B   3EFF           02920         addlw   0xff
097C   3EFF           02921         addlw   0xff
097D   3EFF           02922         addlw   0xff
097E   3EFF           02923         addlw   0xff
097F   3EFF           02924         addlw   0xff
0980   3EFF           02925         addlw   0xff
0981   3EFF           02926         addlw   0xff
0982   3EFF           02927         addlw   0xff
0983   3EFF           02928         addlw   0xff
0984   3EFF           02929         addlw   0xff
0985   3EFF           02930         addlw   0xff
0986   3EFF           02931         addlw   0xff
0987   3EFF           02932         addlw   0xff
0988   3EFF           02933         addlw   0xff
0989   3EFF           02934         addlw   0xff
098A   3EFF           02935         addlw   0xff
098B   3EFF           02936         addlw   0xff
098C   3EFF           02937         addlw   0xff
098D   3EFF           02938         addlw   0xff
098E   3EFF           02939         addlw   0xff
098F   3EFF           02940         addlw   0xff
0990   3EFF           02941         addlw   0xff
0991   3EFF           02942         addlw   0xff
0992   3EFF           02943         addlw   0xff
0993   3EFF           02944         addlw   0xff
0994   3EFF           02945         addlw   0xff
0995   3EFF           02946         addlw   0xff
0996   3EFF           02947         addlw   0xff
0997   3EFF           02948         addlw   0xff
0998   3EFF           02949         addlw   0xff
0999   3EFF           02950         addlw   0xff
099A   3EFF           02951         addlw   0xff
099B   3EFF           02952         addlw   0xff
099C   3EFF           02953         addlw   0xff
099D   3EFF           02954         addlw   0xff
099E   3EFF           02955         addlw   0xff
099F   3EFF           02956         addlw   0xff
09A0   3EFF           02957         addlw   0xff
09A1   3EFF           02958         addlw   0xff
09A2   3EFF           02959         addlw   0xff
09A3   3EFF           02960         addlw   0xff
gpasm-1.5.2 #1325 (Nov 17 2022)   asmfile.asm   26/10/2023  18:12:30        PAGE 60


LOC    OBJECT CODE    LINE  SOURCE TEXT
  VALUE

09A4   3EFF           02961         addlw   0xff
09A5   3EFF           02962         addlw   0xff
09A6   3EFF           02963         addlw   0xff
09A7   3EFF           02964         addlw   0xff
09A8   3EFF           02965         addlw   0xff
09A9   3EFF           02966         addlw   0xff
09AA   3EFF           02967         addlw   0xff
09AB   3EFF           02968         addlw   0xff
09AC   3EFF           02969         addlw   0xff
09AD   3EFF           02970         addlw   0xff
09AE   3EFF           02971         addlw   0xff
09AF   3EFF           02972         addlw   0xff
09B0   3EFF           02973         addlw   0xff
09B1   3EFF           02974         addlw   0xff
09B2   3EFF           02975         addlw   0xff
09B3   3EFF           02976         addlw   0xff
09B4   3EFF           02977         addlw   0xff
09B5   3EFF           02978         addlw   0xff
09B6   3EFF           02979         addlw   0xff
09B7   3EFF           02980         addlw   0xff
09B8   3EFF           02981         addlw   0xff
09B9   3EFF           02982         addlw   0xff
09BA   3EFF           02983         addlw   0xff
09BB   3EFF           02984         addlw   0xff
09BC   3EFF           02985         addlw   0xff
09BD   3EFF           02986         addlw   0xff
09BE   3EFF           02987         addlw   0xff
09BF   3EFF           02988         addlw   0xff
09C0   3EFF           02989         addlw   0xff
09C1   3EFF           02990         addlw   0xff
09C2   3EFF           02991         addlw   0xff
09C3   3EFF           02992         addlw   0xff
09C4   3EFF           02993         addlw   0xff
09C5   3EFF           02994         addlw   0xff
09C6   3EFF           02995         addlw   0xff
09C7   3EFF           02996         addlw   0xff
09C8   3EFF           02997         addlw   0xff
09C9   3EFF           02998         addlw   0xff
09CA   3EFF           02999         addlw   0xff
09CB   3EFF           03000         addlw   0xff
09CC   3EFF           03001         addlw   0xff
09CD   3EFF           03002         addlw   0xff
09CE   3EFF           03003         addlw   0xff
09CF   3EFF           03004         addlw   0xff
09D0   3EFF           03005         addlw   0xff
09D1   3EFF           03006         addlw   0xff
09D2   3EFF           03007         addlw   0xff
09D3   3EFF           03008         addlw   0xff
09D4   3EFF           03009         addlw   0xff
09D5   3EFF           03010         addlw   0xff
09D6   3EFF           03011         addlw   0xff
09D7   3EFF           03012         addlw   0xff
09D8   3EFF           03013         addlw   0xff
gpasm-1.5.2 #1325 (Nov 17 2022)   asmfile.asm   26/10/2023  18:12:30        PAGE 61


LOC    OBJECT CODE    LINE  SOURCE TEXT
  VALUE

09D9   3EFF           03014         addlw   0xff
09DA   3EFF           03015         addlw   0xff
09DB   3EFF           03016         addlw   0xff
09DC   3EFF           03017         addlw   0xff
09DD   3EFF           03018         addlw   0xff
09DE   3EFF           03019         addlw   0xff
09DF   3EFF           03020         addlw   0xff
09E0   3EFF           03021         addlw   0xff
09E1   3EFF           03022         addlw   0xff
09E2   3EFF           03023         addlw   0xff
09E3   3EFF           03024         addlw   0xff
09E4   3EFF           03025         addlw   0xff
09E5   3EFF           03026         addlw   0xff
09E6   3EFF           03027         addlw   0xff
09E7   3EFF           03028         addlw   0xff
09E8   3EFF           03029         addlw   0xff
09E9   3EFF           03030         addlw   0xff
09EA   3EFF           03031         addlw   0xff
09EB   3EFF           03032         addlw   0xff
09EC   3EFF           03033         addlw   0xff
09ED   3EFF           03034         addlw   0xff
09EE   3EFF           03035         addlw   0xff
09EF   3EFF           03036         addlw   0xff
09F0   3EFF           03037         addlw   0xff
09F1   3EFF           03038         addlw   0xff
09F2   3EFF           03039         addlw   0xff
09F3   3EFF           03040         addlw   0xff
09F4   3EFF           03041         addlw   0xff
09F5   3EFF           03042         addlw   0xff
09F6   3EFF           03043         addlw   0xff
09F7   3EFF           03044         addlw   0xff
09F8   3EFF           03045         addlw   0xff
09F9   3EFF           03046         addlw   0xff
09FA   3EFF           03047         addlw   0xff
09FB   3EFF           03048         addlw   0xff
09FC   3EFF           03049         addlw   0xff
09FD   3EFF           03050         addlw   0xff
09FE   3EFF           03051         addlw   0xff
09FF   3EFF           03052         addlw   0xff
0A00   3EFF           03053         addlw   0xff
0A01   3EFF           03054         addlw   0xff
0A02   3EFF           03055         addlw   0xff
0A03   3EFF           03056         addlw   0xff
0A04   3EFF           03057         addlw   0xff
0A05   3EFF           03058         addlw   0xff
0A06   3EFF           03059         addlw   0xff
0A07   3EFF           03060         addlw   0xff
0A08   3EFF           03061         addlw   0xff
0A09   3EFF           03062         addlw   0xff
0A0A   3EFF           03063         addlw   0xff
0A0B   3EFF           03064         addlw   0xff
0A0C   3EFF           03065         addlw   0xff
0A0D   3EFF           03066         addlw   0xff
gpasm-1.5.2 #1325 (Nov 17 2022)   asmfile.asm   26/10/2023  18:12:30        PAGE 62


LOC    OBJECT CODE    LINE  SOURCE TEXT
  VALUE

0A0E   3EFF           03067         addlw   0xff
0A0F   3EFF           03068         addlw   0xff
0A10   3EFF           03069         addlw   0xff
0A11   3EFF           03070         addlw   0xff
0A12   3EFF           03071         addlw   0xff
0A13   3EFF           03072         addlw   0xff
0A14   3EFF           03073         addlw   0xff
0A15   3EFF           03074         addlw   0xff
0A16   3EFF           03075         addlw   0xff
0A17   3EFF           03076         addlw   0xff
0A18   3EFF           03077         addlw   0xff
0A19   3EFF           03078         addlw   0xff
0A1A   3EFF           03079         addlw   0xff
0A1B   3EFF           03080         addlw   0xff
0A1C   3EFF           03081         addlw   0xff
0A1D   3EFF           03082         addlw   0xff
0A1E   3EFF           03083         addlw   0xff
0A1F   3EFF           03084         addlw   0xff
0A20   3EFF           03085         addlw   0xff
0A21   3EFF           03086         addlw   0xff
0A22   3EFF           03087         addlw   0xff
0A23   3EFF           03088         addlw   0xff
0A24   3EFF           03089         addlw   0xff
0A25   3EFF           03090         addlw   0xff
0A26   3EFF           03091         addlw   0xff
0A27   3EFF           03092         addlw   0xff
0A28   3EFF           03093         addlw   0xff
0A29   3EFF           03094         addlw   0xff
0A2A   3EFF           03095         addlw   0xff
0A2B   3EFF           03096         addlw   0xff
0A2C   3EFF           03097         addlw   0xff
0A2D   3EFF           03098         addlw   0xff
0A2E   3EFF           03099         addlw   0xff
0A2F   3EFF           03100         addlw   0xff
0A30   3EFF           03101         addlw   0xff
0A31   3EFF           03102         addlw   0xff
0A32   3EFF           03103         addlw   0xff
0A33   3EFF           03104         addlw   0xff
0A34   3EFF           03105         addlw   0xff
0A35   3EFF           03106         addlw   0xff
0A36   3EFF           03107         addlw   0xff
0A37   3EFF           03108         addlw   0xff
0A38   3EFF           03109         addlw   0xff
0A39   3EFF           03110         addlw   0xff
0A3A   3EFF           03111         addlw   0xff
0A3B   3EFF           03112         addlw   0xff
0A3C   3EFF           03113         addlw   0xff
0A3D   3EFF           03114         addlw   0xff
0A3E   3EFF           03115         addlw   0xff
0A3F   3EFF           03116         addlw   0xff
0A40   3EFF           03117         addlw   0xff
0A41   3EFF           03118         addlw   0xff
0A42   3EFF           03119         addlw   0xff
gpasm-1.5.2 #1325 (Nov 17 2022)   asmfile.asm   26/10/2023  18:12:30        PAGE 63


LOC    OBJECT CODE    LINE  SOURCE TEXT
  VALUE

0A43   3EFF           03120         addlw   0xff
0A44   3EFF           03121         addlw   0xff
0A45   3EFF           03122         addlw   0xff
0A46   3EFF           03123         addlw   0xff
0A47   3EFF           03124         addlw   0xff
0A48   3EFF           03125         addlw   0xff
0A49   3EFF           03126         addlw   0xff
0A4A   3EFF           03127         addlw   0xff
0A4B   3EFF           03128         addlw   0xff
0A4C   3EFF           03129         addlw   0xff
0A4D   3EFF           03130         addlw   0xff
0A4E   3EFF           03131         addlw   0xff
0A4F   3EFF           03132         addlw   0xff
0A50   3EFF           03133         addlw   0xff
0A51   3EFF           03134         addlw   0xff
0A52   3EFF           03135         addlw   0xff
0A53   3EFF           03136         addlw   0xff
0A54   3EFF           03137         addlw   0xff
0A55   3EFF           03138         addlw   0xff
0A56   3EFF           03139         addlw   0xff
0A57   3EFF           03140         addlw   0xff
0A58   3EFF           03141         addlw   0xff
0A59   3EFF           03142         addlw   0xff
0A5A   3EFF           03143         addlw   0xff
0A5B   3EFF           03144         addlw   0xff
0A5C   3EFF           03145         addlw   0xff
0A5D   3EFF           03146         addlw   0xff
0A5E   3EFF           03147         addlw   0xff
0A5F   3EFF           03148         addlw   0xff
0A60   3EFF           03149         addlw   0xff
0A61   3EFF           03150         addlw   0xff
0A62   3EFF           03151         addlw   0xff
0A63   3EFF           03152         addlw   0xff
0A64   3EFF           03153         addlw   0xff
0A65   3EFF           03154         addlw   0xff
0A66   3EFF           03155         addlw   0xff
0A67   3EFF           03156         addlw   0xff
0A68   3EFF           03157         addlw   0xff
0A69   3EFF           03158         addlw   0xff
0A6A   3EFF           03159         addlw   0xff
0A6B   3EFF           03160         addlw   0xff
0A6C   3EFF           03161         addlw   0xff
0A6D   3EFF           03162         addlw   0xff
0A6E   3EFF           03163         addlw   0xff
0A6F   3EFF           03164         addlw   0xff
0A70   3EFF           03165         addlw   0xff
0A71   3EFF           03166         addlw   0xff
0A72   3EFF           03167         addlw   0xff
0A73   3EFF           03168         addlw   0xff
0A74   3EFF           03169         addlw   0xff
0A75   3EFF           03170         addlw   0xff
0A76   3EFF           03171         addlw   0xff
0A77   3EFF           03172         addlw   0xff
gpasm-1.5.2 #1325 (Nov 17 2022)   asmfile.asm   26/10/2023  18:12:30        PAGE 64


LOC    OBJECT CODE    LINE  SOURCE TEXT
  VALUE

0A78   3EFF           03173         addlw   0xff
0A79   3EFF           03174         addlw   0xff
0A7A   3EFF           03175         addlw   0xff
0A7B   3EFF           03176         addlw   0xff
0A7C   3EFF           03177         addlw   0xff
0A7D   3EFF           03178         addlw   0xff
0A7E   3EFF           03179         addlw   0xff
0A7F   3EFF           03180         addlw   0xff
0A80   3EFF           03181         addlw   0xff
0A81   3EFF           03182         addlw   0xff
0A82   3EFF           03183         addlw   0xff
0A83   3EFF           03184         addlw   0xff
0A84   3EFF           03185         addlw   0xff
0A85   3EFF           03186         addlw   0xff
0A86   3EFF           03187         addlw   0xff
0A87   3EFF           03188         addlw   0xff
0A88   3EFF           03189         addlw   0xff
0A89   3EFF           03190         addlw   0xff
0A8A   3EFF           03191         addlw   0xff
0A8B   3EFF           03192         addlw   0xff
0A8C   3EFF           03193         addlw   0xff
0A8D   3EFF           03194         addlw   0xff
0A8E   3EFF           03195         addlw   0xff
0A8F   3EFF           03196         addlw   0xff
0A90   3EFF           03197         addlw   0xff
0A91   3EFF           03198         addlw   0xff
0A92   3EFF           03199         addlw   0xff
0A93   3EFF           03200         addlw   0xff
0A94   3EFF           03201         addlw   0xff
0A95   3EFF           03202         addlw   0xff
0A96   3EFF           03203         addlw   0xff
0A97   3EFF           03204         addlw   0xff
0A98   3EFF           03205         addlw   0xff
0A99   3EFF           03206         addlw   0xff
0A9A   3EFF           03207         addlw   0xff
0A9B   3EFF           03208         addlw   0xff
0A9C   3EFF           03209         addlw   0xff
0A9D   3EFF           03210         addlw   0xff
0A9E   3EFF           03211         addlw   0xff
0A9F   3EFF           03212         addlw   0xff
0AA0   3EFF           03213         addlw   0xff
0AA1   3EFF           03214         addlw   0xff
0AA2   3EFF           03215         addlw   0xff
0AA3   3EFF           03216         addlw   0xff
0AA4   3EFF           03217         addlw   0xff
0AA5   3EFF           03218         addlw   0xff
0AA6   3EFF           03219         addlw   0xff
0AA7   3EFF           03220         addlw   0xff
0AA8   3EFF           03221         addlw   0xff
0AA9   3EFF           03222         addlw   0xff
0AAA   3EFF           03223         addlw   0xff
0AAB   3EFF           03224         addlw   0xff
0AAC   3EFF           03225         addlw   0xff
gpasm-1.5.2 #1325 (Nov 17 2022)   asmfile.asm   26/10/2023  18:12:30        PAGE 65


LOC    OBJECT CODE    LINE  SOURCE TEXT
  VALUE

0AAD   3EFF           03226         addlw   0xff
0AAE   3EFF           03227         addlw   0xff
0AAF   3EFF           03228         addlw   0xff
0AB0   3EFF           03229         addlw   0xff
0AB1   3EFF           03230         addlw   0xff
0AB2   3EFF           03231         addlw   0xff
0AB3   3EFF           03232         addlw   0xff
0AB4   3EFF           03233         addlw   0xff
0AB5   3EFF           03234         addlw   0xff
0AB6   3EFF           03235         addlw   0xff
0AB7   3EFF           03236         addlw   0xff
0AB8   3EFF           03237         addlw   0xff
0AB9   3EFF           03238         addlw   0xff
0ABA   3EFF           03239         addlw   0xff
0ABB   3EFF           03240         addlw   0xff
0ABC   3EFF           03241         addlw   0xff
0ABD   3EFF           03242         addlw   0xff
0ABE   3EFF           03243         addlw   0xff
0ABF   3EFF           03244         addlw   0xff
0AC0   3EFF           03245         addlw   0xff
0AC1   3EFF           03246         addlw   0xff
0AC2   3EFF           03247         addlw   0xff
0AC3   3EFF           03248         addlw   0xff
0AC4   3EFF           03249         addlw   0xff
0AC5   3EFF           03250         addlw   0xff
0AC6   3EFF           03251         addlw   0xff
0AC7   3EFF           03252         addlw   0xff
0AC8   3EFF           03253         addlw   0xff
0AC9   3EFF           03254         addlw   0xff
0ACA   3EFF           03255         addlw   0xff
0ACB   3EFF           03256         addlw   0xff
0ACC   3EFF           03257         addlw   0xff
0ACD   3EFF           03258         addlw   0xff
0ACE   3EFF           03259         addlw   0xff
0ACF   3EFF           03260         addlw   0xff
0AD0   3EFF           03261         addlw   0xff
0AD1   3EFF           03262         addlw   0xff
0AD2   3EFF           03263         addlw   0xff
0AD3   3EFF           03264         addlw   0xff
0AD4   3EFF           03265         addlw   0xff
0AD5   3EFF           03266         addlw   0xff
0AD6   3EFF           03267         addlw   0xff
0AD7   3EFF           03268         addlw   0xff
0AD8   3EFF           03269         addlw   0xff
0AD9   3EFF           03270         addlw   0xff
0ADA   3EFF           03271         addlw   0xff
0ADB   3EFF           03272         addlw   0xff
0ADC   3EFF           03273         addlw   0xff
0ADD   3EFF           03274         addlw   0xff
0ADE   3EFF           03275         addlw   0xff
0ADF   3EFF           03276         addlw   0xff
0AE0   3EFF           03277         addlw   0xff
0AE1   3EFF           03278         addlw   0xff
gpasm-1.5.2 #1325 (Nov 17 2022)   asmfile.asm   26/10/2023  18:12:30        PAGE 66


LOC    OBJECT CODE    LINE  SOURCE TEXT
  VALUE

0AE2   3EFF           03279         addlw   0xff
0AE3   3EFF           03280         addlw   0xff
0AE4   3EFF           03281         addlw   0xff
0AE5   3EFF           03282         addlw   0xff
0AE6   3EFF           03283         addlw   0xff
0AE7   3EFF           03284         addlw   0xff
0AE8   3EFF           03285         addlw   0xff
0AE9   3EFF           03286         addlw   0xff
0AEA   3EFF           03287         addlw   0xff
0AEB   3EFF           03288         addlw   0xff
0AEC   3EFF           03289         addlw   0xff
0AED   3EFF           03290         addlw   0xff
0AEE   3EFF           03291         addlw   0xff
0AEF   3EFF           03292         addlw   0xff
0AF0   3EFF           03293         addlw   0xff
0AF1   3EFF           03294         addlw   0xff
0AF2   3EFF           03295         addlw   0xff
0AF3   3EFF           03296         addlw   0xff
0AF4   3EFF           03297         addlw   0xff
0AF5   3EFF           03298         addlw   0xff
0AF6   3EFF           03299         addlw   0xff
0AF7   3EFF           03300         addlw   0xff
0AF8   3EFF           03301         addlw   0xff
0AF9   3EFF           03302         addlw   0xff
0AFA   3EFF           03303         addlw   0xff
0AFB   3EFF           03304         addlw   0xff
0AFC   3EFF           03305         addlw   0xff
0AFD   3EFF           03306         addlw   0xff
0AFE   3EFF           03307         addlw   0xff
0AFF   3EFF           03308         addlw   0xff
0B00   3EFF           03309         addlw   0xff
0B01   3EFF           03310         addlw   0xff
0B02   3EFF           03311         addlw   0xff
0B03   3EFF           03312         addlw   0xff
0B04   3EFF           03313         addlw   0xff
0B05   3EFF           03314         addlw   0xff
0B06   3EFF           03315         addlw   0xff
0B07   3EFF           03316         addlw   0xff
0B08   3EFF           03317         addlw   0xff
0B09   3EFF           03318         addlw   0xff
0B0A   3EFF           03319         addlw   0xff
0B0B   3EFF           03320         addlw   0xff
0B0C   3EFF           03321         addlw   0xff
0B0D   3EFF           03322         addlw   0xff
0B0E   3EFF           03323         addlw   0xff
0B0F   3EFF           03324         addlw   0xff
0B10   3EFF           03325         addlw   0xff
0B11   3EFF           03326         addlw   0xff
0B12   3EFF           03327         addlw   0xff
0B13   3EFF           03328         addlw   0xff
0B14   3EFF           03329         addlw   0xff
0B15   3EFF           03330         addlw   0xff
0B16   3EFF           03331         addlw   0xff
gpasm-1.5.2 #1325 (Nov 17 2022)   asmfile.asm   26/10/2023  18:12:30        PAGE 67


LOC    OBJECT CODE    LINE  SOURCE TEXT
  VALUE

0B17   3EFF           03332         addlw   0xff
0B18   3EFF           03333         addlw   0xff
0B19   3EFF           03334         addlw   0xff
0B1A   3EFF           03335         addlw   0xff
0B1B   3EFF           03336         addlw   0xff
0B1C   3EFF           03337         addlw   0xff
0B1D   3EFF           03338         addlw   0xff
0B1E   3EFF           03339         addlw   0xff
0B1F   3EFF           03340         addlw   0xff
0B20   3EFF           03341         addlw   0xff
0B21   3EFF           03342         addlw   0xff
0B22   3EFF           03343         addlw   0xff
0B23   3EFF           03344         addlw   0xff
0B24   3EFF           03345         addlw   0xff
0B25   3EFF           03346         addlw   0xff
0B26   3EFF           03347         addlw   0xff
0B27   3EFF           03348         addlw   0xff
0B28   3EFF           03349         addlw   0xff
0B29   3EFF           03350         addlw   0xff
0B2A   3EFF           03351         addlw   0xff
0B2B   3EFF           03352         addlw   0xff
0B2C   3EFF           03353         addlw   0xff
0B2D   3EFF           03354         addlw   0xff
0B2E   3EFF           03355         addlw   0xff
0B2F   3EFF           03356         addlw   0xff
0B30   3EFF           03357         addlw   0xff
0B31   3EFF           03358         addlw   0xff
0B32   3EFF           03359         addlw   0xff
0B33   3EFF           03360         addlw   0xff
0B34   3EFF           03361         addlw   0xff
0B35   3EFF           03362         addlw   0xff
0B36   3EFF           03363         addlw   0xff
0B37   3EFF           03364         addlw   0xff
0B38   3EFF           03365         addlw   0xff
0B39   3EFF           03366         addlw   0xff
0B3A   3EFF           03367         addlw   0xff
0B3B   3EFF           03368         addlw   0xff
0B3C   3EFF           03369         addlw   0xff
0B3D   3EFF           03370         addlw   0xff
0B3E   3EFF           03371         addlw   0xff
0B3F   3EFF           03372         addlw   0xff
0B40   3EFF           03373         addlw   0xff
0B41   3EFF           03374         addlw   0xff
0B42   3EFF           03375         addlw   0xff
0B43   3EFF           03376         addlw   0xff
0B44   3EFF           03377         addlw   0xff
0B45   3EFF           03378         addlw   0xff
0B46   3EFF           03379         addlw   0xff
0B47   3EFF           03380         addlw   0xff
0B48   3EFF           03381         addlw   0xff
0B49   3EFF           03382         addlw   0xff
0B4A   3EFF           03383         addlw   0xff
0B4B   3EFF           03384         addlw   0xff
gpasm-1.5.2 #1325 (Nov 17 2022)   asmfile.asm   26/10/2023  18:12:30        PAGE 68


LOC    OBJECT CODE    LINE  SOURCE TEXT
  VALUE

0B4C   3EFF           03385         addlw   0xff
0B4D   3EFF           03386         addlw   0xff
0B4E   3EFF           03387         addlw   0xff
0B4F   3EFF           03388         addlw   0xff
0B50   3EFF           03389         addlw   0xff
0B51   3EFF           03390         addlw   0xff
0B52   3EFF           03391         addlw   0xff
0B53   3EFF           03392         addlw   0xff
0B54   3EFF           03393         addlw   0xff
0B55   3EFF           03394         addlw   0xff
0B56   3EFF           03395         addlw   0xff
0B57   3EFF           03396         addlw   0xff
0B58   3EFF           03397         addlw   0xff
0B59   3EFF           03398         addlw   0xff
0B5A   3EFF           03399         addlw   0xff
0B5B   3EFF           03400         addlw   0xff
0B5C   3EFF           03401         addlw   0xff
0B5D   3EFF           03402         addlw   0xff
0B5E   3EFF           03403         addlw   0xff
0B5F   3EFF           03404         addlw   0xff
0B60   3EFF           03405         addlw   0xff
0B61   3EFF           03406         addlw   0xff
0B62   3EFF           03407         addlw   0xff
0B63   3EFF           03408         addlw   0xff
0B64   3EFF           03409         addlw   0xff
0B65   3EFF           03410         addlw   0xff
0B66   3EFF           03411         addlw   0xff
0B67   3EFF           03412         addlw   0xff
0B68   3EFF           03413         addlw   0xff
0B69   3EFF           03414         addlw   0xff
0B6A   3EFF           03415         addlw   0xff
0B6B   3EFF           03416         addlw   0xff
0B6C   3EFF           03417         addlw   0xff
0B6D   3EFF           03418         addlw   0xff
0B6E   3EFF           03419         addlw   0xff
0B6F   3EFF           03420         addlw   0xff
0B70   3EFF           03421         addlw   0xff
0B71   3EFF           03422         addlw   0xff
0B72   3EFF           03423         addlw   0xff
0B73   3EFF           03424         addlw   0xff
0B74   3EFF           03425         addlw   0xff
0B75   3EFF           03426         addlw   0xff
0B76   3EFF           03427         addlw   0xff
0B77   3EFF           03428         addlw   0xff
0B78   3EFF           03429         addlw   0xff
0B79   3EFF           03430         addlw   0xff
0B7A   3EFF           03431         addlw   0xff
0B7B   3EFF           03432         addlw   0xff
0B7C   3EFF           03433         addlw   0xff
0B7D   3EFF           03434         addlw   0xff
0B7E   3EFF           03435         addlw   0xff
0B7F   3EFF           03436         addlw   0xff
0B80   3EFF           03437         addlw   0xff
gpasm-1.5.2 #1325 (Nov 17 2022)   asmfile.asm   26/10/2023  18:12:30        PAGE 69


LOC    OBJECT CODE    LINE  SOURCE TEXT
  VALUE

0B81   3EFF           03438         addlw   0xff
0B82   3EFF           03439         addlw   0xff
0B83   3EFF           03440         addlw   0xff
0B84   3EFF           03441         addlw   0xff
0B85   3EFF           03442         addlw   0xff
0B86   3EFF           03443         addlw   0xff
0B87   3EFF           03444         addlw   0xff
0B88   3EFF           03445         addlw   0xff
0B89   3EFF           03446         addlw   0xff
0B8A   3EFF           03447         addlw   0xff
0B8B   3EFF           03448         addlw   0xff
0B8C   3EFF           03449         addlw   0xff
0B8D   3EFF           03450         addlw   0xff
0B8E   3EFF           03451         addlw   0xff
0B8F   3EFF           03452         addlw   0xff
0B90   3EFF           03453         addlw   0xff
0B91   3EFF           03454         addlw   0xff
0B92   3EFF           03455         addlw   0xff
0B93   3EFF           03456         addlw   0xff
0B94   3EFF           03457         addlw   0xff
0B95   3EFF           03458         addlw   0xff
0B96   3EFF           03459         addlw   0xff
0B97   3EFF           03460         addlw   0xff
0B98   3EFF           03461         addlw   0xff
0B99   3EFF           03462         addlw   0xff
0B9A   3EFF           03463         addlw   0xff
0B9B   3EFF           03464         addlw   0xff
0B9C   3EFF           03465         addlw   0xff
0B9D   3EFF           03466         addlw   0xff
0B9E   3EFF           03467         addlw   0xff
0B9F   3EFF           03468         addlw   0xff
0BA0   3EFF           03469         addlw   0xff
0BA1   3EFF           03470         addlw   0xff
0BA2   3EFF           03471         addlw   0xff
0BA3   3EFF           03472         addlw   0xff
0BA4   3EFF           03473         addlw   0xff
0BA5   3EFF           03474         addlw   0xff
0BA6   3EFF           03475         addlw   0xff
0BA7   3EFF           03476         addlw   0xff
0BA8   3EFF           03477         addlw   0xff
0BA9   3EFF           03478         addlw   0xff
0BAA   3EFF           03479         addlw   0xff
0BAB   3EFF           03480         addlw   0xff
0BAC   3EFF           03481         addlw   0xff
0BAD   3EFF           03482         addlw   0xff
0BAE   3EFF           03483         addlw   0xff
0BAF   3EFF           03484         addlw   0xff
0BB0   3EFF           03485         addlw   0xff
0BB1   3EFF           03486         addlw   0xff
0BB2   3EFF           03487         addlw   0xff
0BB3   3EFF           03488         addlw   0xff
0BB4   3EFF           03489         addlw   0xff
0BB5   3EFF           03490         addlw   0xff
gpasm-1.5.2 #1325 (Nov 17 2022)   asmfile.asm   26/10/2023  18:12:30        PAGE 70


LOC    OBJECT CODE    LINE  SOURCE TEXT
  VALUE

0BB6   3EFF           03491         addlw   0xff
0BB7   3EFF           03492         addlw   0xff
0BB8   3EFF           03493         addlw   0xff
0BB9   3EFF           03494         addlw   0xff
0BBA   3EFF           03495         addlw   0xff
0BBB   3EFF           03496         addlw   0xff
0BBC   3EFF           03497         addlw   0xff
0BBD   3EFF           03498         addlw   0xff
0BBE   3EFF           03499         addlw   0xff
0BBF   3EFF           03500         addlw   0xff
0BC0   3EFF           03501         addlw   0xff
0BC1   3EFF           03502         addlw   0xff
0BC2   3EFF           03503         addlw   0xff
0BC3   3EFF           03504         addlw   0xff
0BC4   3EFF           03505         addlw   0xff
0BC5   3EFF           03506         addlw   0xff
0BC6   3EFF           03507         addlw   0xff
0BC7   3EFF           03508         addlw   0xff
0BC8   3EFF           03509         addlw   0xff
0BC9   3EFF           03510         addlw   0xff
0BCA   3EFF           03511         addlw   0xff
0BCB   3EFF           03512         addlw   0xff
0BCC   3EFF           03513         addlw   0xff
0BCD   3EFF           03514         addlw   0xff
0BCE   3EFF           03515         addlw   0xff
0BCF   3EFF           03516         addlw   0xff
0BD0   3EFF           03517         addlw   0xff
0BD1   3EFF           03518         addlw   0xff
0BD2   3EFF           03519         addlw   0xff
0BD3   3EFF           03520         addlw   0xff
0BD4   3EFF           03521         addlw   0xff
0BD5   3EFF           03522         addlw   0xff
0BD6   3EFF           03523         addlw   0xff
0BD7   3EFF           03524         addlw   0xff
0BD8   3EFF           03525         addlw   0xff
0BD9   3EFF           03526         addlw   0xff
0BDA   3EFF           03527         addlw   0xff
0BDB   3EFF           03528         addlw   0xff
0BDC   3EFF           03529         addlw   0xff
0BDD   3EFF           03530         addlw   0xff
0BDE   3EFF           03531         addlw   0xff
0BDF   3EFF           03532         addlw   0xff
0BE0   3EFF           03533         addlw   0xff
0BE1   3EFF           03534         addlw   0xff
0BE2   3EFF           03535         addlw   0xff
0BE3   3EFF           03536         addlw   0xff
0BE4   3EFF           03537         addlw   0xff
0BE5   3EFF           03538         addlw   0xff
0BE6   3EFF           03539         addlw   0xff
0BE7   3EFF           03540         addlw   0xff
0BE8   3EFF           03541         addlw   0xff
0BE9   3EFF           03542         addlw   0xff
0BEA   3EFF           03543         addlw   0xff
gpasm-1.5.2 #1325 (Nov 17 2022)   asmfile.asm   26/10/2023  18:12:30        PAGE 71


LOC    OBJECT CODE    LINE  SOURCE TEXT
  VALUE

0BEB   3EFF           03544         addlw   0xff
0BEC   3EFF           03545         addlw   0xff
0BED   3EFF           03546         addlw   0xff
0BEE   3EFF           03547         addlw   0xff
0BEF   3EFF           03548         addlw   0xff
0BF0   3EFF           03549         addlw   0xff
0BF1   3EFF           03550         addlw   0xff
0BF2   3EFF           03551         addlw   0xff
0BF3   3EFF           03552         addlw   0xff
0BF4   3EFF           03553         addlw   0xff
0BF5   3EFF           03554         addlw   0xff
0BF6   3EFF           03555         addlw   0xff
0BF7   3EFF           03556         addlw   0xff
0BF8   3EFF           03557         addlw   0xff
0BF9   3EFF           03558         addlw   0xff
0BFA   3EFF           03559         addlw   0xff
0BFB   3EFF           03560         addlw   0xff
0BFC   3EFF           03561         addlw   0xff
0BFD   3EFF           03562         addlw   0xff
0BFE   3EFF           03563         addlw   0xff
0BFF   3EFF           03564         addlw   0xff
0C00   3EFF           03565         addlw   0xff
0C01   3EFF           03566         addlw   0xff
0C02   3EFF           03567         addlw   0xff
0C03   3EFF           03568         addlw   0xff
0C04   3EFF           03569         addlw   0xff
0C05   3EFF           03570         addlw   0xff
0C06   3EFF           03571         addlw   0xff
0C07   3EFF           03572         addlw   0xff
0C08   3EFF           03573         addlw   0xff
0C09   3EFF           03574         addlw   0xff
0C0A   3EFF           03575         addlw   0xff
0C0B   3EFF           03576         addlw   0xff
0C0C   3EFF           03577         addlw   0xff
0C0D   3EFF           03578         addlw   0xff
0C0E   3EFF           03579         addlw   0xff
0C0F   3EFF           03580         addlw   0xff
0C10   3EFF           03581         addlw   0xff
0C11   3EFF           03582         addlw   0xff
0C12   3EFF           03583         addlw   0xff
0C13   3EFF           03584         addlw   0xff
0C14   3EFF           03585         addlw   0xff
0C15   3EFF           03586         addlw   0xff
0C16   3EFF           03587         addlw   0xff
0C17   3EFF           03588         addlw   0xff
0C18   3EFF           03589         addlw   0xff
0C19   3EFF           03590         addlw   0xff
0C1A   3EFF           03591         addlw   0xff
0C1B   3EFF           03592         addlw   0xff
0C1C   3EFF           03593         addlw   0xff
0C1D   3EFF           03594         addlw   0xff
0C1E   3EFF           03595         addlw   0xff
0C1F   3EFF           03596         addlw   0xff
gpasm-1.5.2 #1325 (Nov 17 2022)   asmfile.asm   26/10/2023  18:12:30        PAGE 72


LOC    OBJECT CODE    LINE  SOURCE TEXT
  VALUE

0C20   3EFF           03597         addlw   0xff
0C21   3EFF           03598         addlw   0xff
0C22   3EFF           03599         addlw   0xff
0C23   3EFF           03600         addlw   0xff
0C24   3EFF           03601         addlw   0xff
0C25   3EFF           03602         addlw   0xff
0C26   3EFF           03603         addlw   0xff
0C27   3EFF           03604         addlw   0xff
0C28   3EFF           03605         addlw   0xff
0C29   3EFF           03606         addlw   0xff
0C2A   3EFF           03607         addlw   0xff
0C2B   3EFF           03608         addlw   0xff
0C2C   3EFF           03609         addlw   0xff
0C2D   3EFF           03610         addlw   0xff
0C2E   3EFF           03611         addlw   0xff
0C2F   3EFF           03612         addlw   0xff
0C30   3EFF           03613         addlw   0xff
0C31   3EFF           03614         addlw   0xff
0C32   3EFF           03615         addlw   0xff
0C33   3EFF           03616         addlw   0xff
0C34   3EFF           03617         addlw   0xff
0C35   3EFF           03618         addlw   0xff
0C36   3EFF           03619         addlw   0xff
0C37   3EFF           03620         addlw   0xff
0C38   3EFF           03621         addlw   0xff
0C39   3EFF           03622         addlw   0xff
0C3A   3EFF           03623         addlw   0xff
0C3B   3EFF           03624         addlw   0xff
0C3C   3EFF           03625         addlw   0xff
0C3D   3EFF           03626         addlw   0xff
0C3E   3EFF           03627         addlw   0xff
0C3F   3EFF           03628         addlw   0xff
0C40   3EFF           03629         addlw   0xff
0C41   3EFF           03630         addlw   0xff
0C42   3EFF           03631         addlw   0xff
0C43   3EFF           03632         addlw   0xff
0C44   3EFF           03633         addlw   0xff
0C45   3EFF           03634         addlw   0xff
0C46   3EFF           03635         addlw   0xff
0C47   3EFF           03636         addlw   0xff
0C48   3EFF           03637         addlw   0xff
0C49   3EFF           03638         addlw   0xff
0C4A   3EFF           03639         addlw   0xff
0C4B   3EFF           03640         addlw   0xff
0C4C   3EFF           03641         addlw   0xff
0C4D   3EFF           03642         addlw   0xff
0C4E   3EFF           03643         addlw   0xff
0C4F   3EFF           03644         addlw   0xff
0C50   3EFF           03645         addlw   0xff
0C51   3EFF           03646         addlw   0xff
0C52   3EFF           03647         addlw   0xff
0C53   3EFF           03648         addlw   0xff
0C54   3EFF           03649         addlw   0xff
gpasm-1.5.2 #1325 (Nov 17 2022)   asmfile.asm   26/10/2023  18:12:30        PAGE 73


LOC    OBJECT CODE    LINE  SOURCE TEXT
  VALUE

0C55   3EFF           03650         addlw   0xff
0C56   3EFF           03651         addlw   0xff
0C57   3EFF           03652         addlw   0xff
0C58   3EFF           03653         addlw   0xff
0C59   3EFF           03654         addlw   0xff
0C5A   3EFF           03655         addlw   0xff
0C5B   3EFF           03656         addlw   0xff
0C5C   3EFF           03657         addlw   0xff
0C5D   3EFF           03658         addlw   0xff
0C5E   3EFF           03659         addlw   0xff
0C5F   3EFF           03660         addlw   0xff
0C60   3EFF           03661         addlw   0xff
0C61   3EFF           03662         addlw   0xff
0C62   3EFF           03663         addlw   0xff
0C63   3EFF           03664         addlw   0xff
0C64   3EFF           03665         addlw   0xff
0C65   3EFF           03666         addlw   0xff
0C66   3EFF           03667         addlw   0xff
0C67   3EFF           03668         addlw   0xff
0C68   3EFF           03669         addlw   0xff
0C69   3EFF           03670         addlw   0xff
0C6A   3EFF           03671         addlw   0xff
0C6B   3EFF           03672         addlw   0xff
0C6C   3EFF           03673         addlw   0xff
0C6D   3EFF           03674         addlw   0xff
0C6E   3EFF           03675         addlw   0xff
0C6F   3EFF           03676         addlw   0xff
0C70   3EFF           03677         addlw   0xff
0C71   3EFF           03678         addlw   0xff
0C72   3EFF           03679         addlw   0xff
0C73   3EFF           03680         addlw   0xff
0C74   3EFF           03681         addlw   0xff
0C75   3EFF           03682         addlw   0xff
0C76   3EFF           03683         addlw   0xff
0C77   3EFF           03684         addlw   0xff
0C78   3EFF           03685         addlw   0xff
0C79   3EFF           03686         addlw   0xff
0C7A   3EFF           03687         addlw   0xff
0C7B   3EFF           03688         addlw   0xff
0C7C   3EFF           03689         addlw   0xff
0C7D   3EFF           03690         addlw   0xff
0C7E   3EFF           03691         addlw   0xff
0C7F   3EFF           03692         addlw   0xff
0C80   3EFF           03693         addlw   0xff
0C81   3EFF           03694         addlw   0xff
0C82   3EFF           03695         addlw   0xff
0C83   3EFF           03696         addlw   0xff
0C84   3EFF           03697         addlw   0xff
0C85   3EFF           03698         addlw   0xff
0C86   3EFF           03699         addlw   0xff
0C87   3EFF           03700         addlw   0xff
0C88   3EFF           03701         addlw   0xff
0C89   3EFF           03702         addlw   0xff
gpasm-1.5.2 #1325 (Nov 17 2022)   asmfile.asm   26/10/2023  18:12:30        PAGE 74


LOC    OBJECT CODE    LINE  SOURCE TEXT
  VALUE

0C8A   3EFF           03703         addlw   0xff
0C8B   3EFF           03704         addlw   0xff
0C8C   3EFF           03705         addlw   0xff
0C8D   3EFF           03706         addlw   0xff
0C8E   3EFF           03707         addlw   0xff
0C8F   3EFF           03708         addlw   0xff
0C90   3EFF           03709         addlw   0xff
0C91   3EFF           03710         addlw   0xff
0C92   3EFF           03711         addlw   0xff
0C93   3EFF           03712         addlw   0xff
0C94   3EFF           03713         addlw   0xff
0C95   3EFF           03714         addlw   0xff
0C96   3EFF           03715         addlw   0xff
0C97   3EFF           03716         addlw   0xff
0C98   3EFF           03717         addlw   0xff
0C99   3EFF           03718         addlw   0xff
0C9A   3EFF           03719         addlw   0xff
0C9B   3EFF           03720         addlw   0xff
0C9C   3EFF           03721         addlw   0xff
0C9D   3EFF           03722         addlw   0xff
0C9E   3EFF           03723         addlw   0xff
0C9F   3EFF           03724         addlw   0xff
0CA0   3EFF           03725         addlw   0xff
0CA1   3EFF           03726         addlw   0xff
0CA2   3EFF           03727         addlw   0xff
0CA3   3EFF           03728         addlw   0xff
0CA4   3EFF           03729         addlw   0xff
0CA5   3EFF           03730         addlw   0xff
0CA6   3EFF           03731         addlw   0xff
0CA7   3EFF           03732         addlw   0xff
0CA8   3EFF           03733         addlw   0xff
0CA9   3EFF           03734         addlw   0xff
0CAA   3EFF           03735         addlw   0xff
0CAB   3EFF           03736         addlw   0xff
0CAC   3EFF           03737         addlw   0xff
0CAD   3EFF           03738         addlw   0xff
0CAE   3EFF           03739         addlw   0xff
0CAF   3EFF           03740         addlw   0xff
0CB0   3EFF           03741         addlw   0xff
0CB1   3EFF           03742         addlw   0xff
0CB2   3EFF           03743         addlw   0xff
0CB3   3EFF           03744         addlw   0xff
0CB4   3EFF           03745         addlw   0xff
0CB5   3EFF           03746         addlw   0xff
0CB6   3EFF           03747         addlw   0xff
0CB7   3EFF           03748         addlw   0xff
0CB8   3EFF           03749         addlw   0xff
0CB9   3EFF           03750         addlw   0xff
0CBA   3EFF           03751         addlw   0xff
0CBB   3EFF           03752         addlw   0xff
0CBC   3EFF           03753         addlw   0xff
0CBD   3EFF           03754         addlw   0xff
0CBE   3EFF           03755         addlw   0xff
gpasm-1.5.2 #1325 (Nov 17 2022)   asmfile.asm   26/10/2023  18:12:30        PAGE 75


LOC    OBJECT CODE    LINE  SOURCE TEXT
  VALUE

0CBF   3EFF           03756         addlw   0xff
0CC0   3EFF           03757         addlw   0xff
0CC1   3EFF           03758         addlw   0xff
0CC2   3EFF           03759         addlw   0xff
0CC3   3EFF           03760         addlw   0xff
0CC4   3EFF           03761         addlw   0xff
0CC5   3EFF           03762         addlw   0xff
0CC6   3EFF           03763         addlw   0xff
0CC7   3EFF           03764         addlw   0xff
0CC8   3EFF           03765         addlw   0xff
0CC9   3EFF           03766         addlw   0xff
0CCA   3EFF           03767         addlw   0xff
0CCB   3EFF           03768         addlw   0xff
0CCC   3EFF           03769         addlw   0xff
0CCD   3EFF           03770         addlw   0xff
0CCE   3EFF           03771         addlw   0xff
0CCF   3EFF           03772         addlw   0xff
0CD0   3EFF           03773         addlw   0xff
0CD1   3EFF           03774         addlw   0xff
0CD2   3EFF           03775         addlw   0xff
0CD3   3EFF           03776         addlw   0xff
0CD4   3EFF           03777         addlw   0xff
0CD5   3EFF           03778         addlw   0xff
0CD6   3EFF           03779         addlw   0xff
0CD7   3EFF           03780         addlw   0xff
0CD8   3EFF           03781         addlw   0xff
0CD9   3EFF           03782         addlw   0xff
0CDA   3EFF           03783         addlw   0xff
0CDB   3EFF           03784         addlw   0xff
0CDC   3EFF           03785         addlw   0xff
0CDD   3EFF           03786         addlw   0xff
0CDE   3EFF           03787         addlw   0xff
0CDF   3EFF           03788         addlw   0xff
0CE0   3EFF           03789         addlw   0xff
0CE1   3EFF           03790         addlw   0xff
0CE2   3EFF           03791         addlw   0xff
0CE3   3EFF           03792         addlw   0xff
0CE4   3EFF           03793         addlw   0xff
0CE5   3EFF           03794         addlw   0xff
0CE6   3EFF           03795         addlw   0xff
0CE7   3EFF           03796         addlw   0xff
0CE8   3EFF           03797         addlw   0xff
0CE9   3EFF           03798         addlw   0xff
0CEA   3EFF           03799         addlw   0xff
0CEB   3EFF           03800         addlw   0xff
0CEC   3EFF           03801         addlw   0xff
0CED   3EFF           03802         addlw   0xff
0CEE   3EFF           03803         addlw   0xff
0CEF   3EFF           03804         addlw   0xff
0CF0   3EFF           03805         addlw   0xff
0CF1   3EFF           03806         addlw   0xff
0CF2   3EFF           03807         addlw   0xff
0CF3   3EFF           03808         addlw   0xff
gpasm-1.5.2 #1325 (Nov 17 2022)   asmfile.asm   26/10/2023  18:12:30        PAGE 76


LOC    OBJECT CODE    LINE  SOURCE TEXT
  VALUE

0CF4   3EFF           03809         addlw   0xff
0CF5   3EFF           03810         addlw   0xff
0CF6   3EFF           03811         addlw   0xff
0CF7   3EFF           03812         addlw   0xff
0CF8   3EFF           03813         addlw   0xff
0CF9   3EFF           03814         addlw   0xff
0CFA   3EFF           03815         addlw   0xff
0CFB   3EFF           03816         addlw   0xff
0CFC   3EFF           03817         addlw   0xff
0CFD   3EFF           03818         addlw   0xff
0CFE   3EFF           03819         addlw   0xff
0CFF   3EFF           03820         addlw   0xff
0D00   3EFF           03821         addlw   0xff
0D01   3EFF           03822         addlw   0xff
0D02   3EFF           03823         addlw   0xff
0D03   3EFF           03824         addlw   0xff
0D04   3EFF           03825         addlw   0xff
0D05   3EFF           03826         addlw   0xff
0D06   3EFF           03827         addlw   0xff
0D07   3EFF           03828         addlw   0xff
0D08   3EFF           03829         addlw   0xff
0D09   3EFF           03830         addlw   0xff
0D0A   3EFF           03831         addlw   0xff
0D0B   3EFF           03832         addlw   0xff
0D0C   3EFF           03833         addlw   0xff
0D0D   3EFF           03834         addlw   0xff
0D0E   3EFF           03835         addlw   0xff
0D0F   3EFF           03836         addlw   0xff
0D10   3EFF           03837         addlw   0xff
0D11   3EFF           03838         addlw   0xff
0D12   3EFF           03839         addlw   0xff
0D13   3EFF           03840         addlw   0xff
0D14   3EFF           03841         addlw   0xff
0D15   3EFF           03842         addlw   0xff
0D16   3EFF           03843         addlw   0xff
0D17   3EFF           03844         addlw   0xff
0D18   3EFF           03845         addlw   0xff
0D19   3EFF           03846         addlw   0xff
0D1A   3EFF           03847         addlw   0xff
0D1B   3EFF           03848         addlw   0xff
0D1C   3EFF           03849         addlw   0xff
0D1D   3EFF           03850         addlw   0xff
0D1E   3EFF           03851         addlw   0xff
0D1F   3EFF           03852         addlw   0xff
0D20   3EFF           03853         addlw   0xff
0D21   3EFF           03854         addlw   0xff
0D22   3EFF           03855         addlw   0xff
0D23   3EFF           03856         addlw   0xff
0D24   3EFF           03857         addlw   0xff
0D25   3EFF           03858         addlw   0xff
0D26   3EFF           03859         addlw   0xff
0D27   3EFF           03860         addlw   0xff
0D28   3EFF           03861         addlw   0xff
gpasm-1.5.2 #1325 (Nov 17 2022)   asmfile.asm   26/10/2023  18:12:30        PAGE 77


LOC    OBJECT CODE    LINE  SOURCE TEXT
  VALUE

0D29   3EFF           03862         addlw   0xff
0D2A   3EFF           03863         addlw   0xff
0D2B   3EFF           03864         addlw   0xff
0D2C   3EFF           03865         addlw   0xff
0D2D   3EFF           03866         addlw   0xff
0D2E   3EFF           03867         addlw   0xff
0D2F   3EFF           03868         addlw   0xff
0D30   3EFF           03869         addlw   0xff
0D31   3EFF           03870         addlw   0xff
0D32   3EFF           03871         addlw   0xff
0D33   3EFF           03872         addlw   0xff
0D34   3EFF           03873         addlw   0xff
0D35   3EFF           03874         addlw   0xff
0D36   3EFF           03875         addlw   0xff
0D37   3EFF           03876         addlw   0xff
0D38   3EFF           03877         addlw   0xff
0D39   3EFF           03878         addlw   0xff
0D3A   3EFF           03879         addlw   0xff
0D3B   3EFF           03880         addlw   0xff
0D3C   3EFF           03881         addlw   0xff
0D3D   3EFF           03882         addlw   0xff
0D3E   3EFF           03883         addlw   0xff
0D3F   3EFF           03884         addlw   0xff
0D40   3EFF           03885         addlw   0xff
0D41   3EFF           03886         addlw   0xff
0D42   3EFF           03887         addlw   0xff
0D43   3EFF           03888         addlw   0xff
0D44   3EFF           03889         addlw   0xff
0D45   3EFF           03890         addlw   0xff
0D46   3EFF           03891         addlw   0xff
0D47   3EFF           03892         addlw   0xff
0D48   3EFF           03893         addlw   0xff
0D49   3EFF           03894         addlw   0xff
0D4A   3EFF           03895         addlw   0xff
0D4B   3EFF           03896         addlw   0xff
0D4C   3EFF           03897         addlw   0xff
0D4D   3EFF           03898         addlw   0xff
0D4E   3EFF           03899         addlw   0xff
0D4F   3EFF           03900         addlw   0xff
0D50   3EFF           03901         addlw   0xff
0D51   3EFF           03902         addlw   0xff
0D52   3EFF           03903         addlw   0xff
0D53   3EFF           03904         addlw   0xff
0D54   3EFF           03905         addlw   0xff
0D55   3EFF           03906         addlw   0xff
0D56   3EFF           03907         addlw   0xff
0D57   3EFF           03908         addlw   0xff
0D58   3EFF           03909         addlw   0xff
0D59   3EFF           03910         addlw   0xff
0D5A   3EFF           03911         addlw   0xff
0D5B   3EFF           03912         addlw   0xff
0D5C   3EFF           03913         addlw   0xff
0D5D   3EFF           03914         addlw   0xff
gpasm-1.5.2 #1325 (Nov 17 2022)   asmfile.asm   26/10/2023  18:12:30        PAGE 78


LOC    OBJECT CODE    LINE  SOURCE TEXT
  VALUE

0D5E   3EFF           03915         addlw   0xff
0D5F   3EFF           03916         addlw   0xff
0D60   3EFF           03917         addlw   0xff
0D61   3EFF           03918         addlw   0xff
0D62   3EFF           03919         addlw   0xff
0D63   3EFF           03920         addlw   0xff
0D64   3EFF           03921         addlw   0xff
0D65   3EFF           03922         addlw   0xff
0D66   3EFF           03923         addlw   0xff
0D67   3EFF           03924         addlw   0xff
0D68   3EFF           03925         addlw   0xff
0D69   3EFF           03926         addlw   0xff
0D6A   3EFF           03927         addlw   0xff
0D6B   3EFF           03928         addlw   0xff
0D6C   3EFF           03929         addlw   0xff
0D6D   3EFF           03930         addlw   0xff
0D6E   3EFF           03931         addlw   0xff
0D6F   3EFF           03932         addlw   0xff
0D70   3EFF           03933         addlw   0xff
0D71   3EFF           03934         addlw   0xff
0D72   3EFF           03935         addlw   0xff
0D73   3EFF           03936         addlw   0xff
0D74   3EFF           03937         addlw   0xff
0D75   3EFF           03938         addlw   0xff
0D76   3EFF           03939         addlw   0xff
0D77   3EFF           03940         addlw   0xff
0D78   3EFF           03941         addlw   0xff
0D79   3EFF           03942         addlw   0xff
0D7A   3EFF           03943         addlw   0xff
0D7B   3EFF           03944         addlw   0xff
0D7C   3EFF           03945         addlw   0xff
0D7D   3EFF           03946         addlw   0xff
0D7E   3EFF           03947         addlw   0xff
0D7F   3EFF           03948         addlw   0xff
0D80   3EFF           03949         addlw   0xff
0D81   3EFF           03950         addlw   0xff
0D82   3EFF           03951         addlw   0xff
0D83   3EFF           03952         addlw   0xff
0D84   3EFF           03953         addlw   0xff
0D85   3EFF           03954         addlw   0xff
0D86   3EFF           03955         addlw   0xff
0D87   3EFF           03956         addlw   0xff
0D88   3EFF           03957         addlw   0xff
0D89   3EFF           03958         addlw   0xff
0D8A   3EFF           03959         addlw   0xff
0D8B   3EFF           03960         addlw   0xff
0D8C   3EFF           03961         addlw   0xff
0D8D   3EFF           03962         addlw   0xff
0D8E   3EFF           03963         addlw   0xff
0D8F   3EFF           03964         addlw   0xff
0D90   3EFF           03965         addlw   0xff
0D91   3EFF           03966         addlw   0xff
0D92   3EFF           03967         addlw   0xff
gpasm-1.5.2 #1325 (Nov 17 2022)   asmfile.asm   26/10/2023  18:12:30        PAGE 79


LOC    OBJECT CODE    LINE  SOURCE TEXT
  VALUE

0D93   3EFF           03968         addlw   0xff
0D94   3EFF           03969         addlw   0xff
0D95   3EFF           03970         addlw   0xff
0D96   3EFF           03971         addlw   0xff
0D97   3EFF           03972         addlw   0xff
0D98   3EFF           03973         addlw   0xff
0D99   3EFF           03974         addlw   0xff
0D9A   3EFF           03975         addlw   0xff
0D9B   3EFF           03976         addlw   0xff
0D9C   3EFF           03977         addlw   0xff
0D9D   3EFF           03978         addlw   0xff
0D9E   3EFF           03979         addlw   0xff
0D9F   3EFF           03980         addlw   0xff
0DA0   3EFF           03981         addlw   0xff
0DA1   3EFF           03982         addlw   0xff
0DA2   3EFF           03983         addlw   0xff
0DA3   3EFF           03984         addlw   0xff
0DA4   3EFF           03985         addlw   0xff
0DA5   3EFF           03986         addlw   0xff
0DA6   3EFF           03987         addlw   0xff
0DA7   3EFF           03988         addlw   0xff
0DA8   3EFF           03989         addlw   0xff
0DA9   3EFF           03990         addlw   0xff
0DAA   3EFF           03991         addlw   0xff
0DAB   3EFF           03992         addlw   0xff
0DAC   3EFF           03993         addlw   0xff
0DAD   3EFF           03994         addlw   0xff
0DAE   3EFF           03995         addlw   0xff
0DAF   3EFF           03996         addlw   0xff
0DB0   3EFF           03997         addlw   0xff
0DB1   3EFF           03998         addlw   0xff
0DB2   3EFF           03999         addlw   0xff
0DB3   3EFF           04000         addlw   0xff
0DB4   3EFF           04001         addlw   0xff
0DB5   3EFF           04002         addlw   0xff
0DB6   3EFF           04003         addlw   0xff
0DB7   3EFF           04004         addlw   0xff
0DB8   3EFF           04005         addlw   0xff
0DB9   3EFF           04006         addlw   0xff
0DBA   3EFF           04007         addlw   0xff
0DBB   3EFF           04008         addlw   0xff
0DBC   3EFF           04009         addlw   0xff
0DBD   3EFF           04010         addlw   0xff
0DBE   3EFF           04011         addlw   0xff
0DBF   3EFF           04012         addlw   0xff
0DC0   3EFF           04013         addlw   0xff
0DC1   3EFF           04014         addlw   0xff
0DC2   3EFF           04015         addlw   0xff
0DC3   3EFF           04016         addlw   0xff
0DC4   3EFF           04017         addlw   0xff
0DC5   3EFF           04018         addlw   0xff
0DC6   3EFF           04019         addlw   0xff
0DC7   3EFF           04020         addlw   0xff
gpasm-1.5.2 #1325 (Nov 17 2022)   asmfile.asm   26/10/2023  18:12:30        PAGE 80


LOC    OBJECT CODE    LINE  SOURCE TEXT
  VALUE

0DC8   3EFF           04021         addlw   0xff
0DC9   3EFF           04022         addlw   0xff
0DCA   3EFF           04023         addlw   0xff
0DCB   3EFF           04024         addlw   0xff
0DCC   3EFF           04025         addlw   0xff
0DCD   3EFF           04026         addlw   0xff
0DCE   3EFF           04027         addlw   0xff
0DCF   3EFF           04028         addlw   0xff
0DD0   3EFF           04029         addlw   0xff
0DD1   3EFF           04030         addlw   0xff
0DD2   3EFF           04031         addlw   0xff
0DD3   3EFF           04032         addlw   0xff
0DD4   3EFF           04033         addlw   0xff
0DD5   3EFF           04034         addlw   0xff
0DD6   3EFF           04035         addlw   0xff
0DD7   3EFF           04036         addlw   0xff
0DD8   3EFF           04037         addlw   0xff
0DD9   3EFF           04038         addlw   0xff
0DDA   3EFF           04039         addlw   0xff
0DDB   3EFF           04040         addlw   0xff
0DDC   3EFF           04041         addlw   0xff
0DDD   3EFF           04042         addlw   0xff
0DDE   3EFF           04043         addlw   0xff
0DDF   3EFF           04044         addlw   0xff
0DE0   3EFF           04045         addlw   0xff
0DE1   3EFF           04046         addlw   0xff
0DE2   3EFF           04047         addlw   0xff
0DE3   3EFF           04048         addlw   0xff
0DE4   3EFF           04049         addlw   0xff
0DE5   3EFF           04050         addlw   0xff
0DE6   3EFF           04051         addlw   0xff
0DE7   3EFF           04052         addlw   0xff
0DE8   3EFF           04053         addlw   0xff
0DE9   3EFF           04054         addlw   0xff
0DEA   3EFF           04055         addlw   0xff
0DEB   3EFF           04056         addlw   0xff
0DEC   3EFF           04057         addlw   0xff
0DED   3EFF           04058         addlw   0xff
0DEE   3EFF           04059         addlw   0xff
0DEF   3EFF           04060         addlw   0xff
0DF0   3EFF           04061         addlw   0xff
0DF1   3EFF           04062         addlw   0xff
0DF2   3EFF           04063         addlw   0xff
0DF3   3EFF           04064         addlw   0xff
0DF4   3EFF           04065         addlw   0xff
0DF5   3EFF           04066         addlw   0xff
0DF6   3EFF           04067         addlw   0xff
0DF7   3EFF           04068         addlw   0xff
0DF8   3EFF           04069         addlw   0xff
0DF9   3EFF           04070         addlw   0xff
0DFA   3EFF           04071         addlw   0xff
0DFB   3EFF           04072         addlw   0xff
0DFC   3EFF           04073         addlw   0xff
gpasm-1.5.2 #1325 (Nov 17 2022)   asmfile.asm   26/10/2023  18:12:30        PAGE 81


LOC    OBJECT CODE    LINE  SOURCE TEXT
  VALUE

0DFD   3EFF           04074         addlw   0xff
0DFE   3EFF           04075         addlw   0xff
0DFF   3EFF           04076         addlw   0xff
0E00   3EFF           04077         addlw   0xff
0E01   3EFF           04078         addlw   0xff
0E02   3EFF           04079         addlw   0xff
0E03   3EFF           04080         addlw   0xff
0E04   3EFF           04081         addlw   0xff
0E05   3EFF           04082         addlw   0xff
0E06   3EFF           04083         addlw   0xff
0E07   3EFF           04084         addlw   0xff
0E08   3EFF           04085         addlw   0xff
0E09   3EFF           04086         addlw   0xff
0E0A   3EFF           04087         addlw   0xff
0E0B   3EFF           04088         addlw   0xff
0E0C   3EFF           04089         addlw   0xff
0E0D   3EFF           04090         addlw   0xff
0E0E   3EFF           04091         addlw   0xff
0E0F   3EFF           04092         addlw   0xff
0E10   3EFF           04093         addlw   0xff
0E11   3EFF           04094         addlw   0xff
0E12   3EFF           04095         addlw   0xff
0E13   3EFF           04096         addlw   0xff
0E14   3EFF           04097         addlw   0xff
0E15   3EFF           04098         addlw   0xff
0E16   3EFF           04099         addlw   0xff
0E17   3EFF           04100         addlw   0xff
0E18   3EFF           04101         addlw   0xff
0E19   3EFF           04102         addlw   0xff
0E1A   3EFF           04103         addlw   0xff
0E1B   3EFF           04104         addlw   0xff
0E1C   3EFF           04105         addlw   0xff
0E1D   3EFF           04106         addlw   0xff
0E1E   3EFF           04107         addlw   0xff
0E1F   3EFF           04108         addlw   0xff
0E20   3EFF           04109         addlw   0xff
0E21   3EFF           04110         addlw   0xff
0E22   3EFF           04111         addlw   0xff
0E23   3EFF           04112         addlw   0xff
0E24   3EFF           04113         addlw   0xff
0E25   3EFF           04114         addlw   0xff
0E26   3EFF           04115         addlw   0xff
0E27   3EFF           04116         addlw   0xff
0E28   3EFF           04117         addlw   0xff
0E29   3EFF           04118         addlw   0xff
0E2A   3EFF           04119         addlw   0xff
0E2B   3EFF           04120         addlw   0xff
0E2C   3EFF           04121         addlw   0xff
0E2D   3EFF           04122         addlw   0xff
0E2E   3EFF           04123         addlw   0xff
0E2F   3EFF           04124         addlw   0xff
0E30   3EFF           04125         addlw   0xff
0E31   3EFF           04126         addlw   0xff
gpasm-1.5.2 #1325 (Nov 17 2022)   asmfile.asm   26/10/2023  18:12:30        PAGE 82


LOC    OBJECT CODE    LINE  SOURCE TEXT
  VALUE

0E32   3EFF           04127         addlw   0xff
0E33   3EFF           04128         addlw   0xff
0E34   3EFF           04129         addlw   0xff
0E35   3EFF           04130         addlw   0xff
0E36   3EFF           04131         addlw   0xff
0E37   3EFF           04132         addlw   0xff
0E38   3EFF           04133         addlw   0xff
0E39   3EFF           04134         addlw   0xff
0E3A   3EFF           04135         addlw   0xff
0E3B   3EFF           04136         addlw   0xff
0E3C   3EFF           04137         addlw   0xff
0E3D   3EFF           04138         addlw   0xff
0E3E   3EFF           04139         addlw   0xff
0E3F   3EFF           04140         addlw   0xff
0E40   3EFF           04141         addlw   0xff
0E41   3EFF           04142         addlw   0xff
0E42   3EFF           04143         addlw   0xff
0E43   3EFF           04144         addlw   0xff
0E44   3EFF           04145         addlw   0xff
0E45   3EFF           04146         addlw   0xff
0E46   3EFF           04147         addlw   0xff
0E47   3EFF           04148         addlw   0xff
0E48   3EFF           04149         addlw   0xff
0E49   3EFF           04150         addlw   0xff
0E4A   3EFF           04151         addlw   0xff
0E4B   3EFF           04152         addlw   0xff
0E4C   3EFF           04153         addlw   0xff
0E4D   3EFF           04154         addlw   0xff
0E4E   3EFF           04155         addlw   0xff
0E4F   3EFF           04156         addlw   0xff
0E50   3EFF           04157         addlw   0xff
0E51   3EFF           04158         addlw   0xff
0E52   3EFF           04159         addlw   0xff
0E53   3EFF           04160         addlw   0xff
0E54   3EFF           04161         addlw   0xff
0E55   3EFF           04162         addlw   0xff
0E56   3EFF           04163         addlw   0xff
0E57   3EFF           04164         addlw   0xff
0E58   3EFF           04165         addlw   0xff
0E59   3EFF           04166         addlw   0xff
0E5A   3EFF           04167         addlw   0xff
0E5B   3EFF           04168         addlw   0xff
0E5C   3EFF           04169         addlw   0xff
0E5D   3EFF           04170         addlw   0xff
0E5E   3EFF           04171         addlw   0xff
0E5F   3EFF           04172         addlw   0xff
0E60   3EFF           04173         addlw   0xff
0E61   3EFF           04174         addlw   0xff
0E62   3EFF           04175         addlw   0xff
0E63   3EFF           04176         addlw   0xff
0E64   3EFF           04177         addlw   0xff
0E65   3EFF           04178         addlw   0xff
0E66   3EFF           04179         addlw   0xff
gpasm-1.5.2 #1325 (Nov 17 2022)   asmfile.asm   26/10/2023  18:12:30        PAGE 83


LOC    OBJECT CODE    LINE  SOURCE TEXT
  VALUE

0E67   3EFF           04180         addlw   0xff
0E68   3EFF           04181         addlw   0xff
0E69   3EFF           04182         addlw   0xff
0E6A   3EFF           04183         addlw   0xff
0E6B   3EFF           04184         addlw   0xff
0E6C   3EFF           04185         addlw   0xff
0E6D   3EFF           04186         addlw   0xff
0E6E   3EFF           04187         addlw   0xff
0E6F   3EFF           04188         addlw   0xff
0E70   3EFF           04189         addlw   0xff
0E71   3EFF           04190         addlw   0xff
0E72   3EFF           04191         addlw   0xff
0E73   3EFF           04192         addlw   0xff
0E74   3EFF           04193         addlw   0xff
0E75   3EFF           04194         addlw   0xff
0E76   3EFF           04195         addlw   0xff
0E77   3EFF           04196         addlw   0xff
0E78   3EFF           04197         addlw   0xff
0E79   3EFF           04198         addlw   0xff
0E7A   3EFF           04199         addlw   0xff
0E7B   3EFF           04200         addlw   0xff
0E7C   3EFF           04201         addlw   0xff
0E7D   3EFF           04202         addlw   0xff
0E7E   3EFF           04203         addlw   0xff
0E7F   3EFF           04204         addlw   0xff
0E80   3EFF           04205         addlw   0xff
0E81   3EFF           04206         addlw   0xff
0E82   3EFF           04207         addlw   0xff
0E83   3EFF           04208         addlw   0xff
0E84   3EFF           04209         addlw   0xff
0E85   3EFF           04210         addlw   0xff
0E86   3EFF           04211         addlw   0xff
0E87   3EFF           04212         addlw   0xff
0E88   3EFF           04213         addlw   0xff
0E89   3EFF           04214         addlw   0xff
0E8A   3EFF           04215         addlw   0xff
0E8B   3EFF           04216         addlw   0xff
0E8C   3EFF           04217         addlw   0xff
0E8D   3EFF           04218         addlw   0xff
0E8E   3EFF           04219         addlw   0xff
0E8F   3EFF           04220         addlw   0xff
0E90   3EFF           04221         addlw   0xff
0E91   3EFF           04222         addlw   0xff
0E92   3EFF           04223         addlw   0xff
0E93   3EFF           04224         addlw   0xff
0E94   3EFF           04225         addlw   0xff
0E95   3EFF           04226         addlw   0xff
0E96   3EFF           04227         addlw   0xff
0E97   3EFF           04228         addlw   0xff
0E98   3EFF           04229         addlw   0xff
0E99   3EFF           04230         addlw   0xff
0E9A   3EFF           04231         addlw   0xff
0E9B   3EFF           04232         addlw   0xff
gpasm-1.5.2 #1325 (Nov 17 2022)   asmfile.asm   26/10/2023  18:12:30        PAGE 84


LOC    OBJECT CODE    LINE  SOURCE TEXT
  VALUE

0E9C   3EFF           04233         addlw   0xff
0E9D   3EFF           04234         addlw   0xff
0E9E   3EFF           04235         addlw   0xff
0E9F   3EFF           04236         addlw   0xff
0EA0   3EFF           04237         addlw   0xff
0EA1   3EFF           04238         addlw   0xff
0EA2   3EFF           04239         addlw   0xff
0EA3   3EFF           04240         addlw   0xff
0EA4   3EFF           04241         addlw   0xff
0EA5   3EFF           04242         addlw   0xff
0EA6   3EFF           04243         addlw   0xff
0EA7   3EFF           04244         addlw   0xff
0EA8   3EFF           04245         addlw   0xff
0EA9   3EFF           04246         addlw   0xff
0EAA   3EFF           04247         addlw   0xff
0EAB   3EFF           04248         addlw   0xff
0EAC   3EFF           04249         addlw   0xff
0EAD   3EFF           04250         addlw   0xff
0EAE   3EFF           04251         addlw   0xff
0EAF   3EFF           04252         addlw   0xff
0EB0   3EFF           04253         addlw   0xff
0EB1   3EFF           04254         addlw   0xff
0EB2   3EFF           04255         addlw   0xff
0EB3   3EFF           04256         addlw   0xff
0EB4   3EFF           04257         addlw   0xff
0EB5   3EFF           04258         addlw   0xff
0EB6   3EFF           04259         addlw   0xff
0EB7   3EFF           04260         addlw   0xff
0EB8   3EFF           04261         addlw   0xff
0EB9   3EFF           04262         addlw   0xff
0EBA   3EFF           04263         addlw   0xff
0EBB   3EFF           04264         addlw   0xff
0EBC   3EFF           04265         addlw   0xff
0EBD   3EFF           04266         addlw   0xff
0EBE   3EFF           04267         addlw   0xff
0EBF   3EFF           04268         addlw   0xff
0EC0   3EFF           04269         addlw   0xff
0EC1   3EFF           04270         addlw   0xff
0EC2   3EFF           04271         addlw   0xff
0EC3   3EFF           04272         addlw   0xff
0EC4   3EFF           04273         addlw   0xff
0EC5   3EFF           04274         addlw   0xff
0EC6   3EFF           04275         addlw   0xff
0EC7   3EFF           04276         addlw   0xff
0EC8   3EFF           04277         addlw   0xff
0EC9   3EFF           04278         addlw   0xff
0ECA   3EFF           04279         addlw   0xff
0ECB   3EFF           04280         addlw   0xff
0ECC   3EFF           04281         addlw   0xff
0ECD   3EFF           04282         addlw   0xff
0ECE   3EFF           04283         addlw   0xff
0ECF   3EFF           04284         addlw   0xff
0ED0   3EFF           04285         addlw   0xff
gpasm-1.5.2 #1325 (Nov 17 2022)   asmfile.asm   26/10/2023  18:12:30        PAGE 85


LOC    OBJECT CODE    LINE  SOURCE TEXT
  VALUE

0ED1   3EFF           04286         addlw   0xff
0ED2   3EFF           04287         addlw   0xff
0ED3   3EFF           04288         addlw   0xff
0ED4   3EFF           04289         addlw   0xff
0ED5   3EFF           04290         addlw   0xff
0ED6   3EFF           04291         addlw   0xff
0ED7   3EFF           04292         addlw   0xff
0ED8   3EFF           04293         addlw   0xff
0ED9   3EFF           04294         addlw   0xff
0EDA   3EFF           04295         addlw   0xff
0EDB   3EFF           04296         addlw   0xff
0EDC   3EFF           04297         addlw   0xff
0EDD   3EFF           04298         addlw   0xff
0EDE   3EFF           04299         addlw   0xff
0EDF   3EFF           04300         addlw   0xff
0EE0   3EFF           04301         addlw   0xff
0EE1   3EFF           04302         addlw   0xff
0EE2   3EFF           04303         addlw   0xff
0EE3   3EFF           04304         addlw   0xff
0EE4   3EFF           04305         addlw   0xff
0EE5   3EFF           04306         addlw   0xff
0EE6   3EFF           04307         addlw   0xff
0EE7   3EFF           04308         addlw   0xff
0EE8   3EFF           04309         addlw   0xff
0EE9   3EFF           04310         addlw   0xff
0EEA   3EFF           04311         addlw   0xff
0EEB   3EFF           04312         addlw   0xff
0EEC   3EFF           04313         addlw   0xff
0EED   3EFF           04314         addlw   0xff
0EEE   3EFF           04315         addlw   0xff
0EEF   3EFF           04316         addlw   0xff
0EF0   3EFF           04317         addlw   0xff
0EF1   3EFF           04318         addlw   0xff
0EF2   3EFF           04319         addlw   0xff
0EF3   3EFF           04320         addlw   0xff
0EF4   3EFF           04321         addlw   0xff
0EF5   3EFF           04322         addlw   0xff
0EF6   3EFF           04323         addlw   0xff
0EF7   3EFF           04324         addlw   0xff
0EF8   3EFF           04325         addlw   0xff
0EF9   3EFF           04326         addlw   0xff
0EFA   3EFF           04327         addlw   0xff
0EFB   3EFF           04328         addlw   0xff
0EFC   3EFF           04329         addlw   0xff
0EFD   3EFF           04330         addlw   0xff
0EFE   3EFF           04331         addlw   0xff
0EFF   3EFF           04332         addlw   0xff
0F00   3EFF           04333         addlw   0xff
0F01   3EFF           04334         addlw   0xff
0F02   3EFF           04335         addlw   0xff
0F03   3EFF           04336         addlw   0xff
0F04   3EFF           04337         addlw   0xff
0F05   3EFF           04338         addlw   0xff
gpasm-1.5.2 #1325 (Nov 17 2022)   asmfile.asm   26/10/2023  18:12:30        PAGE 86


LOC    OBJECT CODE    LINE  SOURCE TEXT
  VALUE

0F06   3EFF           04339         addlw   0xff
0F07   3EFF           04340         addlw   0xff
0F08   3EFF           04341         addlw   0xff
0F09   3EFF           04342         addlw   0xff
0F0A   3EFF           04343         addlw   0xff
0F0B   3EFF           04344         addlw   0xff
0F0C   3EFF           04345         addlw   0xff
0F0D   3EFF           04346         addlw   0xff
0F0E   3EFF           04347         addlw   0xff
0F0F   3EFF           04348         addlw   0xff
0F10   3EFF           04349         addlw   0xff
0F11   3EFF           04350         addlw   0xff
0F12   3EFF           04351         addlw   0xff
0F13   3EFF           04352         addlw   0xff
0F14   3EFF           04353         addlw   0xff
0F15   3EFF           04354         addlw   0xff
0F16   3EFF           04355         addlw   0xff
0F17   3EFF           04356         addlw   0xff
0F18   3EFF           04357         addlw   0xff
0F19   3EFF           04358         addlw   0xff
0F1A   3EFF           04359         addlw   0xff
0F1B   3EFF           04360         addlw   0xff
0F1C   3EFF           04361         addlw   0xff
0F1D   3EFF           04362         addlw   0xff
0F1E   3EFF           04363         addlw   0xff
0F1F   3EFF           04364         addlw   0xff
0F20   3EFF           04365         addlw   0xff
0F21   3EFF           04366         addlw   0xff
0F22   3EFF           04367         addlw   0xff
0F23   3EFF           04368         addlw   0xff
0F24   3EFF           04369         addlw   0xff
0F25   3EFF           04370         addlw   0xff
0F26   3EFF           04371         addlw   0xff
0F27   3EFF           04372         addlw   0xff
0F28   3EFF           04373         addlw   0xff
0F29   3EFF           04374         addlw   0xff
0F2A   3EFF           04375         addlw   0xff
0F2B   3EFF           04376         addlw   0xff
0F2C   3EFF           04377         addlw   0xff
0F2D   3EFF           04378         addlw   0xff
0F2E   3EFF           04379         addlw   0xff
0F2F   3EFF           04380         addlw   0xff
0F30   3EFF           04381         addlw   0xff
0F31   3EFF           04382         addlw   0xff
0F32   3EFF           04383         addlw   0xff
0F33   3EFF           04384         addlw   0xff
0F34   3EFF           04385         addlw   0xff
0F35   3EFF           04386         addlw   0xff
0F36   3EFF           04387         addlw   0xff
0F37   3EFF           04388         addlw   0xff
0F38   3EFF           04389         addlw   0xff
0F39   3EFF           04390         addlw   0xff
0F3A   3EFF           04391         addlw   0xff
gpasm-1.5.2 #1325 (Nov 17 2022)   asmfile.asm   26/10/2023  18:12:30        PAGE 87


LOC    OBJECT CODE    LINE  SOURCE TEXT
  VALUE

0F3B   3EFF           04392         addlw   0xff
0F3C   3EFF           04393         addlw   0xff
0F3D   3EFF           04394         addlw   0xff
0F3E   3EFF           04395         addlw   0xff
0F3F   3EFF           04396         addlw   0xff
0F40   3EFF           04397         addlw   0xff
0F41   3EFF           04398         addlw   0xff
0F42   3EFF           04399         addlw   0xff
0F43   3EFF           04400         addlw   0xff
0F44   3EFF           04401         addlw   0xff
0F45   3EFF           04402         addlw   0xff
0F46   3EFF           04403         addlw   0xff
0F47   3EFF           04404         addlw   0xff
0F48   3EFF           04405         addlw   0xff
0F49   3EFF           04406         addlw   0xff
0F4A   3EFF           04407         addlw   0xff
0F4B   3EFF           04408         addlw   0xff
0F4C   3EFF           04409         addlw   0xff
0F4D   3EFF           04410         addlw   0xff
0F4E   3EFF           04411         addlw   0xff
0F4F   3EFF           04412         addlw   0xff
0F50   3EFF           04413         addlw   0xff
0F51   3EFF           04414         addlw   0xff
0F52   3EFF           04415         addlw   0xff
0F53   3EFF           04416         addlw   0xff
0F54   3EFF           04417         addlw   0xff
0F55   3EFF           04418         addlw   0xff
0F56   3EFF           04419         addlw   0xff
0F57   3EFF           04420         addlw   0xff
0F58   3EFF           04421         addlw   0xff
0F59   3EFF           04422         addlw   0xff
0F5A   3EFF           04423         addlw   0xff
0F5B   3EFF           04424         addlw   0xff
0F5C   3EFF           04425         addlw   0xff
0F5D   3EFF           04426         addlw   0xff
0F5E   3EFF           04427         addlw   0xff
0F5F   3EFF           04428         addlw   0xff
0F60   3EFF           04429         addlw   0xff
0F61   3EFF           04430         addlw   0xff
0F62   3EFF           04431         addlw   0xff
0F63   3EFF           04432         addlw   0xff
0F64   3EFF           04433         addlw   0xff
0F65   3EFF           04434         addlw   0xff
0F66   3EFF           04435         addlw   0xff
0F67   3EFF           04436         addlw   0xff
0F68   3EFF           04437         addlw   0xff
0F69   3EFF           04438         addlw   0xff
0F6A   3EFF           04439         addlw   0xff
0F6B   3EFF           04440         addlw   0xff
0F6C   3EFF           04441         addlw   0xff
0F6D   3EFF           04442         addlw   0xff
0F6E   3EFF           04443         addlw   0xff
0F6F   3EFF           04444         addlw   0xff
gpasm-1.5.2 #1325 (Nov 17 2022)   asmfile.asm   26/10/2023  18:12:30        PAGE 88


LOC    OBJECT CODE    LINE  SOURCE TEXT
  VALUE

0F70   3EFF           04445         addlw   0xff
0F71   3EFF           04446         addlw   0xff
0F72   3EFF           04447         addlw   0xff
0F73   3EFF           04448         addlw   0xff
0F74   3EFF           04449         addlw   0xff
0F75   3EFF           04450         addlw   0xff
0F76   3EFF           04451         addlw   0xff
0F77   3EFF           04452         addlw   0xff
0F78   3EFF           04453         addlw   0xff
0F79   3EFF           04454         addlw   0xff
0F7A   3EFF           04455         addlw   0xff
0F7B   3EFF           04456         addlw   0xff
0F7C   3EFF           04457         addlw   0xff
0F7D   3EFF           04458         addlw   0xff
0F7E   3EFF           04459         addlw   0xff
0F7F   3EFF           04460         addlw   0xff
0F80   3EFF           04461         addlw   0xff
0F81   3EFF           04462         addlw   0xff
0F82   3EFF           04463         addlw   0xff
0F83   3EFF           04464         addlw   0xff
0F84   3EFF           04465         addlw   0xff
0F85   3EFF           04466         addlw   0xff
0F86   3EFF           04467         addlw   0xff
0F87   3EFF           04468         addlw   0xff
0F88   3EFF           04469         addlw   0xff
0F89   3EFF           04470         addlw   0xff
0F8A   3EFF           04471         addlw   0xff
0F8B   3EFF           04472         addlw   0xff
0F8C   3EFF           04473         addlw   0xff
0F8D   3EFF           04474         addlw   0xff
0F8E   3EFF           04475         addlw   0xff
0F8F   3EFF           04476         addlw   0xff
0F90   3EFF           04477         addlw   0xff
0F91   3EFF           04478         addlw   0xff
0F92   3EFF           04479         addlw   0xff
0F93   3EFF           04480         addlw   0xff
0F94   3EFF           04481         addlw   0xff
0F95   3EFF           04482         addlw   0xff
0F96   3EFF           04483         addlw   0xff
0F97   3EFF           04484         addlw   0xff
0F98   3EFF           04485         addlw   0xff
0F99   3EFF           04486         addlw   0xff
0F9A   3EFF           04487         addlw   0xff
0F9B   3EFF           04488         addlw   0xff
0F9C   3EFF           04489         addlw   0xff
0F9D   3EFF           04490         addlw   0xff
0F9E   3EFF           04491         addlw   0xff
0F9F   3EFF           04492         addlw   0xff
0FA0   3EFF           04493         addlw   0xff
0FA1   3EFF           04494         addlw   0xff
0FA2   3EFF           04495         addlw   0xff
0FA3   3EFF           04496         addlw   0xff
0FA4   3EFF           04497         addlw   0xff
gpasm-1.5.2 #1325 (Nov 17 2022)   asmfile.asm   26/10/2023  18:12:30        PAGE 89


LOC    OBJECT CODE    LINE  SOURCE TEXT
  VALUE

0FA5   3EFF           04498         addlw   0xff
0FA6   3EFF           04499         addlw   0xff
0FA7   3EFF           04500         addlw   0xff
0FA8   3EFF           04501         addlw   0xff
0FA9   3EFF           04502         addlw   0xff
0FAA   3EFF           04503         addlw   0xff
0FAB   3EFF           04504         addlw   0xff
0FAC   3EFF           04505         addlw   0xff
0FAD   3EFF           04506         addlw   0xff
0FAE   3EFF           04507         addlw   0xff
0FAF   3EFF           04508         addlw   0xff
0FB0   3EFF           04509         addlw   0xff
0FB1   3EFF           04510         addlw   0xff
0FB2   3EFF           04511         addlw   0xff
0FB3   3EFF           04512         addlw   0xff
0FB4   3EFF           04513         addlw   0xff
0FB5   3EFF           04514         addlw   0xff
0FB6   3EFF           04515         addlw   0xff
0FB7   3EFF           04516         addlw   0xff
0FB8   3EFF           04517         addlw   0xff
0FB9   3EFF           04518         addlw   0xff
0FBA   3EFF           04519         addlw   0xff
0FBB   3EFF           04520         addlw   0xff
0FBC   3EFF           04521         addlw   0xff
0FBD   3EFF           04522         addlw   0xff
0FBE   3EFF           04523         addlw   0xff
0FBF   3EFF           04524         addlw   0xff
0FC0   3EFF           04525         addlw   0xff
0FC1   3EFF           04526         addlw   0xff
0FC2   3EFF           04527         addlw   0xff
0FC3   3EFF           04528         addlw   0xff
0FC4   3EFF           04529         addlw   0xff
0FC5   3EFF           04530         addlw   0xff
0FC6   3EFF           04531         addlw   0xff
0FC7   3EFF           04532         addlw   0xff
0FC8   3EFF           04533         addlw   0xff
0FC9   3EFF           04534         addlw   0xff
0FCA   3EFF           04535         addlw   0xff
0FCB   3EFF           04536         addlw   0xff
0FCC   3EFF           04537         addlw   0xff
0FCD   3EFF           04538         addlw   0xff
0FCE   3EFF           04539         addlw   0xff
0FCF   3EFF           04540         addlw   0xff
0FD0   3EFF           04541         addlw   0xff
0FD1   3EFF           04542         addlw   0xff
0FD2   3EFF           04543         addlw   0xff
0FD3   3EFF           04544         addlw   0xff
0FD4   3EFF           04545         addlw   0xff
0FD5   3EFF           04546         addlw   0xff
0FD6   3EFF           04547         addlw   0xff
0FD7   3EFF           04548         addlw   0xff
0FD8   3EFF           04549         addlw   0xff
0FD9   3EFF           04550         addlw   0xff
gpasm-1.5.2 #1325 (Nov 17 2022)   asmfile.asm   26/10/2023  18:12:30        PAGE 90


LOC    OBJECT CODE    LINE  SOURCE TEXT
  VALUE

0FDA   3EFF           04551         addlw   0xff
0FDB   3EFF           04552         addlw   0xff
0FDC   3EFF           04553         addlw   0xff
0FDD   3EFF           04554         addlw   0xff
0FDE   3EFF           04555         addlw   0xff
0FDF   3EFF           04556         addlw   0xff
0FE0   3EFF           04557         addlw   0xff
0FE1   3EFF           04558         addlw   0xff
0FE2   3EFF           04559         addlw   0xff
0FE3   3EFF           04560         addlw   0xff
0FE4   3EFF           04561         addlw   0xff
0FE5   3EFF           04562         addlw   0xff
0FE6   3EFF           04563         addlw   0xff
0FE7   3EFF           04564         addlw   0xff
0FE8   3EFF           04565         addlw   0xff
0FE9   3EFF           04566         addlw   0xff
0FEA   3EFF           04567         addlw   0xff
0FEB   3EFF           04568         addlw   0xff
0FEC   3EFF           04569         addlw   0xff
0FED   3EFF           04570         addlw   0xff
0FEE   3EFF           04571         addlw   0xff
0FEF   3EFF           04572         addlw   0xff
0FF0   3EFF           04573         addlw   0xff
0FF1   3EFF           04574         addlw   0xff
0FF2   3EFF           04575         addlw   0xff
0FF3   3EFF           04576         addlw   0xff
0FF4   3EFF           04577         addlw   0xff
0FF5   3EFF           04578         addlw   0xff
0FF6   3EFF           04579         addlw   0xff
0FF7   3EFF           04580         addlw   0xff
0FF8   3EFF           04581         addlw   0xff
0FF9   3EFF           04582         addlw   0xff
0FFA   3EFF           04583         addlw   0xff
0FFB   3EFF           04584         addlw   0xff
0FFC   3EFF           04585         addlw   0xff
0FFD   3EFF           04586         addlw   0xff
0FFE   3EFF           04587         addlw   0xff
0FFF   3EFF           04588         addlw   0xff
                      04589 
                      04590 ;===============================================================================
                      04591 ; EEDATA area
                      04592 
                      04593         ; eeprom
                      04594 
2100                  04595         org     __EEPROM_START                              ; address: 0x2100
                      04596 
2100   FF             04597         db      0xff
2100   00             04598         db      0x00
2101   FF             04599         db      0xff
2101   00             04600         db      0x00
2102   FF             04601         db      0xff
2102   00             04602         db      0x00
2103   FF             04603         db      0xff
gpasm-1.5.2 #1325 (Nov 17 2022)   asmfile.asm   26/10/2023  18:12:30        PAGE 91


LOC    OBJECT CODE    LINE  SOURCE TEXT
  VALUE

2103   00             04604         db      0x00
2104   FF             04605         db      0xff
2104   00             04606         db      0x00
2105   FF             04607         db      0xff
2105   00             04608         db      0x00
2106   FF             04609         db      0xff
2106   00             04610         db      0x00
2107   FF             04611         db      0xff
2107   00             04612         db      0x00
2108   FF             04613         db      0xff
2108   00             04614         db      0x00
2109   FF             04615         db      0xff
2109   00             04616         db      0x00
210A   FF             04617         db      0xff
210A   00             04618         db      0x00
210B   FF             04619         db      0xff
210B   00             04620         db      0x00
210C   FF             04621         db      0xff
210C   00             04622         db      0x00
210D   FF             04623         db      0xff
210D   00             04624         db      0x00
210E   FF             04625         db      0xff
210E   00             04626         db      0x00
210F   FF             04627         db      0xff
210F   00             04628         db      0x00
2110   FF             04629         db      0xff
2110   00             04630         db      0x00
2111   FF             04631         db      0xff
2111   00             04632         db      0x00
2112   FF             04633         db      0xff
2112   00             04634         db      0x00
2113   FF             04635         db      0xff
2113   00             04636         db      0x00
2114   FF             04637         db      0xff
2114   00             04638         db      0x00
2115   FF             04639         db      0xff
2115   00             04640         db      0x00
2116   FF             04641         db      0xff
2116   00             04642         db      0x00
2117   FF             04643         db      0xff
2117   00             04644         db      0x00
2118   FF             04645         db      0xff
2118   00             04646         db      0x00
2119   FF             04647         db      0xff
2119   00             04648         db      0x00
211A   FF             04649         db      0xff
211A   00             04650         db      0x00
211B   FF             04651         db      0xff
211B   00             04652         db      0x00
211C   FF             04653         db      0xff
211C   00             04654         db      0x00
211D   FF             04655         db      0xff
211D   00             04656         db      0x00
gpasm-1.5.2 #1325 (Nov 17 2022)   asmfile.asm   26/10/2023  18:12:30        PAGE 92


LOC    OBJECT CODE    LINE  SOURCE TEXT
  VALUE

211E   FF             04657         db      0xff
211E   00             04658         db      0x00
211F   FF             04659         db      0xff
211F   00             04660         db      0x00
2120   FF             04661         db      0xff
2120   00             04662         db      0x00
2121   FF             04663         db      0xff
2121   00             04664         db      0x00
2122   FF             04665         db      0xff
2122   00             04666         db      0x00
2123   FF             04667         db      0xff
2123   00             04668         db      0x00
2124   FF             04669         db      0xff
2124   00             04670         db      0x00
2125   FF             04671         db      0xff
2125   00             04672         db      0x00
2126   FF             04673         db      0xff
2126   00             04674         db      0x00
2127   FF             04675         db      0xff
2127   00             04676         db      0x00
2128   FF             04677         db      0xff
2128   00             04678         db      0x00
2129   FF             04679         db      0xff
2129   00             04680         db      0x00
212A   FF             04681         db      0xff
212A   00             04682         db      0x00
212B   FF             04683         db      0xff
212B   00             04684         db      0x00
212C   FF             04685         db      0xff
212C   00             04686         db      0x00
212D   FF             04687         db      0xff
212D   00             04688         db      0x00
212E   FF             04689         db      0xff
212E   00             04690         db      0x00
212F   FF             04691         db      0xff
212F   00             04692         db      0x00
2130   FF             04693         db      0xff
2130   00             04694         db      0x00
2131   FF             04695         db      0xff
2131   00             04696         db      0x00
2132   FF             04697         db      0xff
2132   00             04698         db      0x00
2133   FF             04699         db      0xff
2133   00             04700         db      0x00
2134   FF             04701         db      0xff
2134   00             04702         db      0x00
2135   FF             04703         db      0xff
2135   00             04704         db      0x00
2136   FF             04705         db      0xff
2136   00             04706         db      0x00
2137   FF             04707         db      0xff
2137   00             04708         db      0x00
2138   FF             04709         db      0xff
gpasm-1.5.2 #1325 (Nov 17 2022)   asmfile.asm   26/10/2023  18:12:30        PAGE 93


LOC    OBJECT CODE    LINE  SOURCE TEXT
  VALUE

2138   00             04710         db      0x00
2139   FF             04711         db      0xff
2139   00             04712         db      0x00
213A   FF             04713         db      0xff
213A   00             04714         db      0x00
213B   FF             04715         db      0xff
213B   00             04716         db      0x00
213C   FF             04717         db      0xff
213C   00             04718         db      0x00
213D   FF             04719         db      0xff
213D   00             04720         db      0x00
213E   FF             04721         db      0xff
213E   00             04722         db      0x00
213F   FF             04723         db      0xff
213F   00             04724         db      0x00
2140   FF             04725         db      0xff
2140   00             04726         db      0x00
2141   FF             04727         db      0xff
2141   00             04728         db      0x00
2142   FF             04729         db      0xff
2142   00             04730         db      0x00
2143   FF             04731         db      0xff
2143   00             04732         db      0x00
2144   FF             04733         db      0xff
2144   00             04734         db      0x00
2145   FF             04735         db      0xff
2145   00             04736         db      0x00
2146   FF             04737         db      0xff
2146   00             04738         db      0x00
2147   FF             04739         db      0xff
2147   00             04740         db      0x00
2148   FF             04741         db      0xff
2148   00             04742         db      0x00
2149   FF             04743         db      0xff
2149   00             04744         db      0x00
214A   FF             04745         db      0xff
214A   00             04746         db      0x00
214B   FF             04747         db      0xff
214B   00             04748         db      0x00
214C   FF             04749         db      0xff
214C   00             04750         db      0x00
214D   FF             04751         db      0xff
214D   00             04752         db      0x00
214E   FF             04753         db      0xff
214E   00             04754         db      0x00
214F   FF             04755         db      0xff
214F   00             04756         db      0x00
2150   FF             04757         db      0xff
2150   00             04758         db      0x00
2151   FF             04759         db      0xff
2151   00             04760         db      0x00
2152   FF             04761         db      0xff
2152   00             04762         db      0x00
gpasm-1.5.2 #1325 (Nov 17 2022)   asmfile.asm   26/10/2023  18:12:30        PAGE 94


LOC    OBJECT CODE    LINE  SOURCE TEXT
  VALUE

2153   FF             04763         db      0xff
2153   00             04764         db      0x00
2154   FF             04765         db      0xff
2154   00             04766         db      0x00
2155   FF             04767         db      0xff
2155   00             04768         db      0x00
2156   FF             04769         db      0xff
2156   00             04770         db      0x00
2157   FF             04771         db      0xff
2157   00             04772         db      0x00
2158   FF             04773         db      0xff
2158   00             04774         db      0x00
2159   FF             04775         db      0xff
2159   00             04776         db      0x00
215A   FF             04777         db      0xff
215A   00             04778         db      0x00
215B   FF             04779         db      0xff
215B   00             04780         db      0x00
215C   FF             04781         db      0xff
215C   00             04782         db      0x00
215D   FF             04783         db      0xff
215D   00             04784         db      0x00
215E   FF             04785         db      0xff
215E   00             04786         db      0x00
215F   FF             04787         db      0xff
215F   00             04788         db      0x00
2160   FF             04789         db      0xff
2160   00             04790         db      0x00
2161   FF             04791         db      0xff
2161   00             04792         db      0x00
2162   FF             04793         db      0xff
2162   00             04794         db      0x00
2163   FF             04795         db      0xff
2163   00             04796         db      0x00
2164   FF             04797         db      0xff
2164   00             04798         db      0x00
2165   FF             04799         db      0xff
2165   00             04800         db      0x00
2166   FF             04801         db      0xff
2166   00             04802         db      0x00
2167   FF             04803         db      0xff
2167   00             04804         db      0x00
2168   FF             04805         db      0xff
2168   00             04806         db      0x00
2169   FF             04807         db      0xff
2169   00             04808         db      0x00
216A   FF             04809         db      0xff
216A   00             04810         db      0x00
216B   FF             04811         db      0xff
216B   00             04812         db      0x00
216C   FF             04813         db      0xff
216C   00             04814         db      0x00
216D   FF             04815         db      0xff
gpasm-1.5.2 #1325 (Nov 17 2022)   asmfile.asm   26/10/2023  18:12:30        PAGE 95


LOC    OBJECT CODE    LINE  SOURCE TEXT
  VALUE

216D   00             04816         db      0x00
216E   FF             04817         db      0xff
216E   00             04818         db      0x00
216F   FF             04819         db      0xff
216F   00             04820         db      0x00
2170   FF             04821         db      0xff
2170   00             04822         db      0x00
2171   FF             04823         db      0xff
2171   00             04824         db      0x00
2172   FF             04825         db      0xff
2172   00             04826         db      0x00
2173   FF             04827         db      0xff
2173   00             04828         db      0x00
2174   FF             04829         db      0xff
2174   00             04830         db      0x00
2175   FF             04831         db      0xff
2175   00             04832         db      0x00
2176   FF             04833         db      0xff
2176   00             04834         db      0x00
2177   FF             04835         db      0xff
2177   00             04836         db      0x00
2178   FF             04837         db      0xff
2178   00             04838         db      0x00
2179   FF             04839         db      0xff
2179   00             04840         db      0x00
217A   FF             04841         db      0xff
217A   00             04842         db      0x00
217B   FF             04843         db      0xff
217B   00             04844         db      0x00
217C   FF             04845         db      0xff
217C   00             04846         db      0x00
217D   FF             04847         db      0xff
217D   00             04848         db      0x00
217E   FF             04849         db      0xff
217E   00             04850         db      0x00
217F   FF             04851         db      0xff
217F   00             04852         db      0x00
2180   FF             04853         db      0xff
2180   00             04854         db      0x00
2181   FF             04855         db      0xff
2181   00             04856         db      0x00
2182   FF             04857         db      0xff
2182   00             04858         db      0x00
2183   FF             04859         db      0xff
2183   00             04860         db      0x00
2184   FF             04861         db      0xff
2184   00             04862         db      0x00
2185   FF             04863         db      0xff
2185   00             04864         db      0x00
2186   FF             04865         db      0xff
2186   00             04866         db      0x00
2187   FF             04867         db      0xff
2187   00             04868         db      0x00
gpasm-1.5.2 #1325 (Nov 17 2022)   asmfile.asm   26/10/2023  18:12:30        PAGE 96


LOC    OBJECT CODE    LINE  SOURCE TEXT
  VALUE

2188   FF             04869         db      0xff
2188   00             04870         db      0x00
2189   FF             04871         db      0xff
2189   00             04872         db      0x00
218A   FF             04873         db      0xff
218A   00             04874         db      0x00
218B   FF             04875         db      0xff
218B   00             04876         db      0x00
218C   FF             04877         db      0xff
218C   00             04878         db      0x00
218D   FF             04879         db      0xff
218D   00             04880         db      0x00
218E   FF             04881         db      0xff
218E   00             04882         db      0x00
218F   FF             04883         db      0xff
218F   00             04884         db      0x00
2190   FF             04885         db      0xff
2190   00             04886         db      0x00
2191   FF             04887         db      0xff
2191   00             04888         db      0x00
2192   FF             04889         db      0xff
2192   00             04890         db      0x00
2193   FF             04891         db      0xff
2193   00             04892         db      0x00
2194   FF             04893         db      0xff
2194   00             04894         db      0x00
2195   FF             04895         db      0xff
2195   00             04896         db      0x00
2196   FF             04897         db      0xff
2196   00             04898         db      0x00
2197   FF             04899         db      0xff
2197   00             04900         db      0x00
2198   FF             04901         db      0xff
2198   00             04902         db      0x00
2199   FF             04903         db      0xff
2199   00             04904         db      0x00
219A   FF             04905         db      0xff
219A   00             04906         db      0x00
219B   FF             04907         db      0xff
219B   00             04908         db      0x00
219C   FF             04909         db      0xff
219C   00             04910         db      0x00
219D   FF             04911         db      0xff
219D   00             04912         db      0x00
219E   FF             04913         db      0xff
219E   00             04914         db      0x00
219F   FF             04915         db      0xff
219F   00             04916         db      0x00
21A0   FF             04917         db      0xff
21A0   00             04918         db      0x00
21A1   FF             04919         db      0xff
21A1   00             04920         db      0x00
21A2   FF             04921         db      0xff
gpasm-1.5.2 #1325 (Nov 17 2022)   asmfile.asm   26/10/2023  18:12:30        PAGE 97


LOC    OBJECT CODE    LINE  SOURCE TEXT
  VALUE

21A2   00             04922         db      0x00
21A3   FF             04923         db      0xff
21A3   00             04924         db      0x00
21A4   FF             04925         db      0xff
21A4   00             04926         db      0x00
21A5   FF             04927         db      0xff
21A5   00             04928         db      0x00
21A6   FF             04929         db      0xff
21A6   00             04930         db      0x00
21A7   FF             04931         db      0xff
21A7   00             04932         db      0x00
21A8   FF             04933         db      0xff
21A8   00             04934         db      0x00
21A9   FF             04935         db      0xff
21A9   00             04936         db      0x00
21AA   FF             04937         db      0xff
21AA   00             04938         db      0x00
21AB   FF             04939         db      0xff
21AB   00             04940         db      0x00
21AC   FF             04941         db      0xff
21AC   00             04942         db      0x00
21AD   FF             04943         db      0xff
21AD   00             04944         db      0x00
21AE   FF             04945         db      0xff
21AE   00             04946         db      0x00
21AF   FF             04947         db      0xff
21AF   00             04948         db      0x00
21B0   FF             04949         db      0xff
21B0   00             04950         db      0x00
21B1   FF             04951         db      0xff
21B1   00             04952         db      0x00
21B2   FF             04953         db      0xff
21B2   00             04954         db      0x00
21B3   FF             04955         db      0xff
21B3   00             04956         db      0x00
21B4   FF             04957         db      0xff
21B4   00             04958         db      0x00
21B5   FF             04959         db      0xff
21B5   00             04960         db      0x00
21B6   FF             04961         db      0xff
21B6   00             04962         db      0x00
21B7   FF             04963         db      0xff
21B7   00             04964         db      0x00
21B8   FF             04965         db      0xff
21B8   00             04966         db      0x00
21B9   FF             04967         db      0xff
21B9   00             04968         db      0x00
21BA   FF             04969         db      0xff
21BA   00             04970         db      0x00
21BB   FF             04971         db      0xff
21BB   00             04972         db      0x00
21BC   FF             04973         db      0xff
21BC   00             04974         db      0x00
gpasm-1.5.2 #1325 (Nov 17 2022)   asmfile.asm   26/10/2023  18:12:30        PAGE 98


LOC    OBJECT CODE    LINE  SOURCE TEXT
  VALUE

21BD   FF             04975         db      0xff
21BD   00             04976         db      0x00
21BE   FF             04977         db      0xff
21BE   00             04978         db      0x00
21BF   FF             04979         db      0xff
21BF   00             04980         db      0x00
21C0   FF             04981         db      0xff
21C0   00             04982         db      0x00
21C1   FF             04983         db      0xff
21C1   00             04984         db      0x00
21C2   FF             04985         db      0xff
21C2   00             04986         db      0x00
21C3   FF             04987         db      0xff
21C3   00             04988         db      0x00
21C4   FF             04989         db      0xff
21C4   00             04990         db      0x00
21C5   FF             04991         db      0xff
21C5   00             04992         db      0x00
21C6   FF             04993         db      0xff
21C6   00             04994         db      0x00
21C7   FF             04995         db      0xff
21C7   00             04996         db      0x00
21C8   FF             04997         db      0xff
21C8   00             04998         db      0x00
21C9   FF             04999         db      0xff
21C9   00             05000         db      0x00
21CA   FF             05001         db      0xff
21CA   00             05002         db      0x00
21CB   FF             05003         db      0xff
21CB   00             05004         db      0x00
21CC   FF             05005         db      0xff
21CC   00             05006         db      0x00
21CD   FF             05007         db      0xff
21CD   00             05008         db      0x00
21CE   FF             05009         db      0xff
21CE   00             05010         db      0x00
21CF   FF             05011         db      0xff
21CF   00             05012         db      0x00
21D0   FF             05013         db      0xff
21D0   00             05014         db      0x00
21D1   FF             05015         db      0xff
21D1   00             05016         db      0x00
21D2   FF             05017         db      0xff
21D2   00             05018         db      0x00
21D3   FF             05019         db      0xff
21D3   00             05020         db      0x00
21D4   FF             05021         db      0xff
21D4   00             05022         db      0x00
21D5   FF             05023         db      0xff
21D5   00             05024         db      0x00
21D6   FF             05025         db      0xff
21D6   00             05026         db      0x00
21D7   FF             05027         db      0xff
gpasm-1.5.2 #1325 (Nov 17 2022)   asmfile.asm   26/10/2023  18:12:30        PAGE 99


LOC    OBJECT CODE    LINE  SOURCE TEXT
  VALUE

21D7   00             05028         db      0x00
21D8   FF             05029         db      0xff
21D8   00             05030         db      0x00
21D9   FF             05031         db      0xff
21D9   00             05032         db      0x00
21DA   FF             05033         db      0xff
21DA   00             05034         db      0x00
21DB   FF             05035         db      0xff
21DB   00             05036         db      0x00
21DC   FF             05037         db      0xff
21DC   00             05038         db      0x00
21DD   FF             05039         db      0xff
21DD   00             05040         db      0x00
21DE   FF             05041         db      0xff
21DE   00             05042         db      0x00
21DF   FF             05043         db      0xff
21DF   00             05044         db      0x00
21E0   FF             05045         db      0xff
21E0   00             05046         db      0x00
21E1   FF             05047         db      0xff
21E1   00             05048         db      0x00
21E2   FF             05049         db      0xff
21E2   00             05050         db      0x00
21E3   FF             05051         db      0xff
21E3   00             05052         db      0x00
21E4   FF             05053         db      0xff
21E4   00             05054         db      0x00
21E5   FF             05055         db      0xff
21E5   00             05056         db      0x00
21E6   FF             05057         db      0xff
21E6   00             05058         db      0x00
21E7   FF             05059         db      0xff
21E7   00             05060         db      0x00
21E8   FF             05061         db      0xff
21E8   00             05062         db      0x00
21E9   FF             05063         db      0xff
21E9   00             05064         db      0x00
21EA   FF             05065         db      0xff
21EA   00             05066         db      0x00
21EB   FF             05067         db      0xff
21EB   00             05068         db      0x00
21EC   FF             05069         db      0xff
21EC   00             05070         db      0x00
21ED   FF             05071         db      0xff
21ED   00             05072         db      0x00
21EE   FF             05073         db      0xff
21EE   00             05074         db      0x00
21EF   FF             05075         db      0xff
21EF   00             05076         db      0x00
21F0   FF             05077         db      0xff
21F0   00             05078         db      0x00
21F1   FF             05079         db      0xff
21F1   00             05080         db      0x00
gpasm-1.5.2 #1325 (Nov 17 2022)   asmfile.asm   26/10/2023  18:12:30        PAGE 100


LOC    OBJECT CODE    LINE  SOURCE TEXT
  VALUE

21F2   FF             05081         db      0xff
21F2   00             05082         db      0x00
21F3   FF             05083         db      0xff
21F3   00             05084         db      0x00
21F4   FF             05085         db      0xff
21F4   00             05086         db      0x00
21F5   FF             05087         db      0xff
21F5   00             05088         db      0x00
21F6   FF             05089         db      0xff
21F6   00             05090         db      0x00
21F7   FF             05091         db      0xff
21F7   00             05092         db      0x00
21F8   FF             05093         db      0xff
21F8   00             05094         db      0x00
21F9   FF             05095         db      0xff
21F9   00             05096         db      0x00
21FA   FF             05097         db      0xff
21FA   00             05098         db      0x00
21FB   FF             05099         db      0xff
21FB   00             05100         db      0x00
21FC   FF             05101         db      0xff
21FC   00             05102         db      0x00
21FD   FF             05103         db      0xff
21FD   00             05104         db      0x00
21FE   FF             05105         db      0xff
21FE   00             05106         db      0x00
21FF   FF             05107         db      0xff
Warning[220]: Address exceeds maximum range for this processor. Bad address: 0x2200 > MAXROM: 0x21FF
21FF   00 0000        05108         db      0x00
                      05109 
                      05110         end
gpasm-1.5.2 #1325 (Nov 17 2022)   asmfile.asm   26/10/2023  18:12:30        PAGE 101


SYMBOL TABLE
  LABEL                              TYPE        VALUE         VALUE          VALUE
                                                 (hex)         (dec)          (text)

ABDEN                             CONSTANT      00000000              0
ABDOVF                            CONSTANT      00000007              7
ACKDT                             CONSTANT      00000005              5
ACKEN                             CONSTANT      00000004              4
ACKSTAT                           CONSTANT      00000006              6
ADCON0                            CONSTANT      0000001F             31
ADCON1                            CONSTANT      0000009F            159
ADCS0                             CONSTANT      00000006              6
ADCS1                             CONSTANT      00000007              7
ADDEN                             CONSTANT      00000003              3
ADFM                              CONSTANT      00000007              7
ADIE                              CONSTANT      00000006              6
ADIF                              CONSTANT      00000006              6
ADON                              CONSTANT      00000000              0
ADRESH                            CONSTANT      0000001E             30
ADRESL                            CONSTANT      0000009E            158
ANS0                              CONSTANT      00000000              0
ANS1                              CONSTANT      00000001              1
ANS2                              CONSTANT      00000002              2
ANS3                              CONSTANT      00000003              3
ANS4                              CONSTANT      00000004              4
ANS5                              CONSTANT      00000005              5
ANS6                              CONSTANT      00000006              6
ANS7                              CONSTANT      00000007              7
ANS8                              CONSTANT      00000000              0
ANS9                              CONSTANT      00000001              1
ANS10                             CONSTANT      00000002              2
ANS11                             CONSTANT      00000003              3
ANS12                             CONSTANT      00000004              4
ANS13                             CONSTANT      00000005              5
ANSEL                             CONSTANT      00000188            392
ANSELH                            CONSTANT      00000189            393
BAUDCTL                           CONSTANT      00000187            391
BCLIE                             CONSTANT      00000003              3
BCLIF                             CONSTANT      00000003              3
BF                                CONSTANT      00000000              0
BRG0                              CONSTANT      00000000              0
BRG1                              CONSTANT      00000001              1
BRG2                              CONSTANT      00000002              2
BRG3                              CONSTANT      00000003              3
BRG4                              CONSTANT      00000004              4
BRG5                              CONSTANT      00000005              5
BRG6                              CONSTANT      00000006              6
BRG7                              CONSTANT      00000007              7
BRG8                              CONSTANT      00000000              0
BRG9                              CONSTANT      00000001              1
BRG10                             CONSTANT      00000002              2
BRG11                             CONSTANT      00000003              3
BRG12                             CONSTANT      00000004              4
BRG13                             CONSTANT      00000005              5
BRG14                             CONSTANT      00000006              6
BRG15                             CONSTANT      00000007              7
gpasm-1.5.2 #1325 (Nov 17 2022)   asmfile.asm   26/10/2023  18:12:30        PAGE 102


SYMBOL TABLE
  LABEL                              TYPE        VALUE         VALUE          VALUE
                                                 (hex)         (dec)          (text)

BRG16                             CONSTANT      00000003              3
BRGH                              CONSTANT      00000002              2
C                                 CONSTANT      00000000              0
C1CH0                             CONSTANT      00000000              0
C1CH1                             CONSTANT      00000001              1
C1IE                              CONSTANT      00000005              5
C1IF                              CONSTANT      00000005              5
C1OE                              CONSTANT      00000005              5
C1ON                              CONSTANT      00000007              7
C1OUT                             CONSTANT      00000006              6
C1POL                             CONSTANT      00000004              4
C1R                               CONSTANT      00000002              2
C1RSEL                            CONSTANT      00000005              5
C1SEN                             CONSTANT      00000005              5
C2CH0                             CONSTANT      00000000              0
C2CH1                             CONSTANT      00000001              1
C2IE                              CONSTANT      00000006              6
C2IF                              CONSTANT      00000006              6
C2OE                              CONSTANT      00000005              5
C2ON                              CONSTANT      00000007              7
C2OUT                             CONSTANT      00000006              6
C2POL                             CONSTANT      00000004              4
C2R                               CONSTANT      00000002              2
C2REN                             CONSTANT      00000004              4
C2RSEL                            CONSTANT      00000004              4
C2SYNC                            CONSTANT      00000000              0
CCP1CON                           CONSTANT      00000017             23
CCP1IE                            CONSTANT      00000002              2
CCP1IF                            CONSTANT      00000002              2
CCP1M0                            CONSTANT      00000000              0
CCP1M1                            CONSTANT      00000001              1
CCP1M2                            CONSTANT      00000002              2
CCP1M3                            CONSTANT      00000003              3
CCP1X                             CONSTANT      00000005              5
CCP1Y                             CONSTANT      00000004              4
CCP2CON                           CONSTANT      0000001D             29
CCP2IE                            CONSTANT      00000000              0
CCP2IF                            CONSTANT      00000000              0
CCP2M0                            CONSTANT      00000000              0
CCP2M1                            CONSTANT      00000001              1
CCP2M2                            CONSTANT      00000002              2
CCP2M3                            CONSTANT      00000003              3
CCP2X                             CONSTANT      00000005              5
CCP2Y                             CONSTANT      00000004              4
CCPR1                             CONSTANT      00000015             21
CCPR1H                            CONSTANT      00000016             22
CCPR1L                            CONSTANT      00000015             21
CCPR2                             CONSTANT      0000001B             27
CCPR2H                            CONSTANT      0000001C             28
CCPR2L                            CONSTANT      0000001B             27
CHS0                              CONSTANT      00000002              2
CHS1                              CONSTANT      00000003              3
gpasm-1.5.2 #1325 (Nov 17 2022)   asmfile.asm   26/10/2023  18:12:30        PAGE 103


SYMBOL TABLE
  LABEL                              TYPE        VALUE         VALUE          VALUE
                                                 (hex)         (dec)          (text)

CHS2                              CONSTANT      00000004              4
CHS3                              CONSTANT      00000005              5
CKE                               CONSTANT      00000006              6
CKP                               CONSTANT      00000004              4
CM1CON0                           CONSTANT      00000107            263
CM2CON0                           CONSTANT      00000108            264
CM2CON1                           CONSTANT      00000109            265
CREN                              CONSTANT      00000004              4
CSRC                              CONSTANT      00000007              7
D                                 CONSTANT      00000005              5
DATA_ADDRESS                      CONSTANT      00000005              5
DC                                CONSTANT      00000001              1
DC1B0                             CONSTANT      00000004              4
DC1B1                             CONSTANT      00000005              5
DC2B0                             CONSTANT      00000004              4
DC2B1                             CONSTANT      00000005              5
D_A                               CONSTANT      00000005              5
D_NOT_A                           CONSTANT      00000005              5
ECCPAS                            CONSTANT      0000009C            156
ECCPAS0                           CONSTANT      00000004              4
ECCPAS1                           CONSTANT      00000005              5
ECCPAS2                           CONSTANT      00000006              6
ECCPASE                           CONSTANT      00000007              7
EEADR                             CONSTANT      0000010D            269
EEADRH                            CONSTANT      0000010F            271
EECON1                            CONSTANT      0000018C            396
EECON2                            CONSTANT      0000018D            397
EEDAT                             CONSTANT      0000010C            268
EEDATA                            CONSTANT      0000010C            268
EEDATH                            CONSTANT      0000010E            270
EEIE                              CONSTANT      00000004              4
EEIF                              CONSTANT      00000004              4
EEPGD                             CONSTANT      00000007              7
F                                 CONSTANT      00000001              1
FERR                              CONSTANT      00000002              2
FSR                               CONSTANT      00000004              4
FVREN                             CONSTANT      00000000              0
GCEN                              CONSTANT      00000007              7
GIE                               CONSTANT      00000007              7
GO                                CONSTANT      00000001              1
GO_DONE                           CONSTANT      00000001              1
GO_NOT_DONE                       CONSTANT      00000001              1
HTS                               CONSTANT      00000002              2
I2C_DATA                          CONSTANT      00000005              5
I2C_READ                          CONSTANT      00000002              2
I2C_START                         CONSTANT      00000003              3
I2C_STOP                          CONSTANT      00000004              4
INDF                              CONSTANT      00000000              0
INTCON                            CONSTANT      0000000B             11
INTE                              CONSTANT      00000004              4
INTEDG                            CONSTANT      00000006              6
INTF                              CONSTANT      00000001              1
gpasm-1.5.2 #1325 (Nov 17 2022)   asmfile.asm   26/10/2023  18:12:30        PAGE 104


SYMBOL TABLE
  LABEL                              TYPE        VALUE         VALUE          VALUE
                                                 (hex)         (dec)          (text)

IOCB                              CONSTANT      00000096            150
IOCB0                             CONSTANT      00000000              0
IOCB1                             CONSTANT      00000001              1
IOCB2                             CONSTANT      00000002              2
IOCB3                             CONSTANT      00000003              3
IOCB4                             CONSTANT      00000004              4
IOCB5                             CONSTANT      00000005              5
IOCB6                             CONSTANT      00000006              6
IOCB7                             CONSTANT      00000007              7
IRCF0                             CONSTANT      00000004              4
IRCF1                             CONSTANT      00000005              5
IRCF2                             CONSTANT      00000006              6
IRP                               CONSTANT      00000007              7
LTS                               CONSTANT      00000001              1
MC1OUT                            CONSTANT      00000007              7
MC2OUT                            CONSTANT      00000006              6
MSK                               CONSTANT      00000093            147
MSK0                              CONSTANT      00000000              0
MSK1                              CONSTANT      00000001              1
MSK2                              CONSTANT      00000002              2
MSK3                              CONSTANT      00000003              3
MSK4                              CONSTANT      00000004              4
MSK5                              CONSTANT      00000005              5
MSK6                              CONSTANT      00000006              6
MSK7                              CONSTANT      00000007              7
NOT_A                             CONSTANT      00000005              5
NOT_ADDRESS                       CONSTANT      00000005              5
NOT_BO                            CONSTANT      00000000              0
NOT_BOR                           CONSTANT      00000000              0
NOT_DONE                          CONSTANT      00000001              1
NOT_PD                            CONSTANT      00000003              3
NOT_POR                           CONSTANT      00000001              1
NOT_RBPU                          CONSTANT      00000007              7
NOT_RC8                           CONSTANT      00000006              6
NOT_T1SYNC                        CONSTANT      00000002              2
NOT_TO                            CONSTANT      00000004              4
NOT_TX8                           CONSTANT      00000006              6
NOT_W                             CONSTANT      00000002              2
NOT_WRITE                         CONSTANT      00000002              2
OERR                              CONSTANT      00000001              1
OPTION_REG                        CONSTANT      00000081            129
OSCCON                            CONSTANT      0000008F            143
OSCTUNE                           CONSTANT      00000090            144
OSFIE                             CONSTANT      00000007              7
OSFIF                             CONSTANT      00000007              7
OSTS                              CONSTANT      00000003              3
P                                 CONSTANT      00000004              4
P1M0                              CONSTANT      00000006              6
P1M1                              CONSTANT      00000007              7
PCL                               CONSTANT      00000002              2
PCLATH                            CONSTANT      0000000A             10
PCON                              CONSTANT      0000008E            142
gpasm-1.5.2 #1325 (Nov 17 2022)   asmfile.asm   26/10/2023  18:12:30        PAGE 105


SYMBOL TABLE
  LABEL                              TYPE        VALUE         VALUE          VALUE
                                                 (hex)         (dec)          (text)

PDC0                              CONSTANT      00000000              0
PDC1                              CONSTANT      00000001              1
PDC2                              CONSTANT      00000002              2
PDC3                              CONSTANT      00000003              3
PDC4                              CONSTANT      00000004              4
PDC5                              CONSTANT      00000005              5
PDC6                              CONSTANT      00000006              6
PEIE                              CONSTANT      00000006              6
PEN                               CONSTANT      00000002              2
PIE1                              CONSTANT      0000008C            140
PIE2                              CONSTANT      0000008D            141
PIR1                              CONSTANT      0000000C             12
PIR2                              CONSTANT      0000000D             13
PORTA                             CONSTANT      00000005              5
PORTB                             CONSTANT      00000006              6
PORTC                             CONSTANT      00000007              7
PORTD                             CONSTANT      00000008              8
PORTE                             CONSTANT      00000009              9
PR2                               CONSTANT      00000092            146
PRSEN                             CONSTANT      00000007              7
PS0                               CONSTANT      00000000              0
PS1                               CONSTANT      00000001              1
PS2                               CONSTANT      00000002              2
PSA                               CONSTANT      00000003              3
PSSAC0                            CONSTANT      00000002              2
PSSAC1                            CONSTANT      00000003              3
PSSBD0                            CONSTANT      00000000              0
PSSBD1                            CONSTANT      00000001              1
PSTRCON                           CONSTANT      0000009D            157
PULSR                             CONSTANT      00000002              2
PULSS                             CONSTANT      00000003              3
PWM1CON                           CONSTANT      0000009B            155
R                                 CONSTANT      00000002              2
RA0                               CONSTANT      00000000              0
RA1                               CONSTANT      00000001              1
RA2                               CONSTANT      00000002              2
RA3                               CONSTANT      00000003              3
RA4                               CONSTANT      00000004              4
RA5                               CONSTANT      00000005              5
RA6                               CONSTANT      00000006              6
RA7                               CONSTANT      00000007              7
RB0                               CONSTANT      00000000              0
RB1                               CONSTANT      00000001              1
RB2                               CONSTANT      00000002              2
RB3                               CONSTANT      00000003              3
RB4                               CONSTANT      00000004              4
RB5                               CONSTANT      00000005              5
RB6                               CONSTANT      00000006              6
RB7                               CONSTANT      00000007              7
RBIE                              CONSTANT      00000003              3
RBIF                              CONSTANT      00000000              0
RC0                               CONSTANT      00000000              0
gpasm-1.5.2 #1325 (Nov 17 2022)   asmfile.asm   26/10/2023  18:12:30        PAGE 106


SYMBOL TABLE
  LABEL                              TYPE        VALUE         VALUE          VALUE
                                                 (hex)         (dec)          (text)

RC1                               CONSTANT      00000001              1
RC2                               CONSTANT      00000002              2
RC3                               CONSTANT      00000003              3
RC4                               CONSTANT      00000004              4
RC5                               CONSTANT      00000005              5
RC6                               CONSTANT      00000006              6
RC7                               CONSTANT      00000007              7
RC8_9                             CONSTANT      00000006              6
RC9                               CONSTANT      00000006              6
RCD8                              CONSTANT      00000000              0
RCEN                              CONSTANT      00000003              3
RCIDL                             CONSTANT      00000006              6
RCIE                              CONSTANT      00000005              5
RCIF                              CONSTANT      00000005              5
RCREG                             CONSTANT      0000001A             26
RCSTA                             CONSTANT      00000018             24
RD                                CONSTANT      00000000              0
RD0                               CONSTANT      00000000              0
RD1                               CONSTANT      00000001              1
RD2                               CONSTANT      00000002              2
RD3                               CONSTANT      00000003              3
RD4                               CONSTANT      00000004              4
RD5                               CONSTANT      00000005              5
RD6                               CONSTANT      00000006              6
RD7                               CONSTANT      00000007              7
RE0                               CONSTANT      00000000              0
RE1                               CONSTANT      00000001              1
RE2                               CONSTANT      00000002              2
RE3                               CONSTANT      00000003              3
READ_WRITE                        CONSTANT      00000002              2
RP0                               CONSTANT      00000005              5
RP1                               CONSTANT      00000006              6
RSEN                              CONSTANT      00000001              1
RX9                               CONSTANT      00000006              6
RX9D                              CONSTANT      00000000              0
R_NOT_W                           CONSTANT      00000002              2
R_W                               CONSTANT      00000002              2
S                                 CONSTANT      00000003              3
SBOREN                            CONSTANT      00000004              4
SCKP                              CONSTANT      00000004              4
SCS                               CONSTANT      00000000              0
SEN                               CONSTANT      00000000              0
SENDB                             CONSTANT      00000003              3
SMP                               CONSTANT      00000007              7
SPBRG                             CONSTANT      00000099            153
SPBRGH                            CONSTANT      0000009A            154
SPEN                              CONSTANT      00000007              7
SR0                               CONSTANT      00000006              6
SR1                               CONSTANT      00000007              7
SRCON                             CONSTANT      00000185            389
SREN                              CONSTANT      00000005              5
SSPADD                            CONSTANT      00000093            147
gpasm-1.5.2 #1325 (Nov 17 2022)   asmfile.asm   26/10/2023  18:12:30        PAGE 107


SYMBOL TABLE
  LABEL                              TYPE        VALUE         VALUE          VALUE
                                                 (hex)         (dec)          (text)

SSPBUF                            CONSTANT      00000013             19
SSPCON                            CONSTANT      00000014             20
SSPCON2                           CONSTANT      00000091            145
SSPEN                             CONSTANT      00000005              5
SSPIE                             CONSTANT      00000003              3
SSPIF                             CONSTANT      00000003              3
SSPM0                             CONSTANT      00000000              0
SSPM1                             CONSTANT      00000001              1
SSPM2                             CONSTANT      00000002              2
SSPM3                             CONSTANT      00000003              3
SSPMSK                            CONSTANT      00000093            147
SSPOV                             CONSTANT      00000006              6
SSPSTAT                           CONSTANT      00000094            148
STATUS                            CONSTANT      00000003              3
STRA                              CONSTANT      00000000              0
STRB                              CONSTANT      00000001              1
STRC                              CONSTANT      00000002              2
STRD                              CONSTANT      00000003              3
STRSYNC                           CONSTANT      00000004              4
SWDTEN                            CONSTANT      00000000              0
SYNC                              CONSTANT      00000004              4
T0CS                              CONSTANT      00000005              5
T0IE                              CONSTANT      00000005              5
T0IF                              CONSTANT      00000002              2
T0SE                              CONSTANT      00000004              4
T1CKPS0                           CONSTANT      00000004              4
T1CKPS1                           CONSTANT      00000005              5
T1CON                             CONSTANT      00000010             16
T1GINV                            CONSTANT      00000007              7
T1GIV                             CONSTANT      00000007              7
T1GSS                             CONSTANT      00000001              1
T1INSYNC                          CONSTANT      00000002              2
T1OSCEN                           CONSTANT      00000003              3
T1SYNC                            CONSTANT      00000002              2
T2CKPS0                           CONSTANT      00000000              0
T2CKPS1                           CONSTANT      00000001              1
T2CON                             CONSTANT      00000012             18
TMR0                              CONSTANT      00000001              1
TMR0IE                            CONSTANT      00000005              5
TMR0IF                            CONSTANT      00000002              2
TMR1                              CONSTANT      0000000E             14
TMR1CS                            CONSTANT      00000001              1
TMR1GE                            CONSTANT      00000006              6
TMR1H                             CONSTANT      0000000F             15
TMR1IE                            CONSTANT      00000000              0
TMR1IF                            CONSTANT      00000000              0
TMR1L                             CONSTANT      0000000E             14
TMR1ON                            CONSTANT      00000000              0
TMR2                              CONSTANT      00000011             17
TMR2IE                            CONSTANT      00000001              1
TMR2IF                            CONSTANT      00000001              1
TMR2ON                            CONSTANT      00000002              2
gpasm-1.5.2 #1325 (Nov 17 2022)   asmfile.asm   26/10/2023  18:12:30        PAGE 108


SYMBOL TABLE
  LABEL                              TYPE        VALUE         VALUE          VALUE
                                                 (hex)         (dec)          (text)

TOUTPS0                           CONSTANT      00000003              3
TOUTPS1                           CONSTANT      00000004              4
TOUTPS2                           CONSTANT      00000005              5
TOUTPS3                           CONSTANT      00000006              6
TRISA                             CONSTANT      00000085            133
TRISA0                            CONSTANT      00000000              0
TRISA1                            CONSTANT      00000001              1
TRISA2                            CONSTANT      00000002              2
TRISA3                            CONSTANT      00000003              3
TRISA4                            CONSTANT      00000004              4
TRISA5                            CONSTANT      00000005              5
TRISA6                            CONSTANT      00000006              6
TRISA7                            CONSTANT      00000007              7
TRISB                             CONSTANT      00000086            134
TRISB0                            CONSTANT      00000000              0
TRISB1                            CONSTANT      00000001              1
TRISB2                            CONSTANT      00000002              2
TRISB3                            CONSTANT      00000003              3
TRISB4                            CONSTANT      00000004              4
TRISB5                            CONSTANT      00000005              5
TRISB6                            CONSTANT      00000006              6
TRISB7                            CONSTANT      00000007              7
TRISC                             CONSTANT      00000087            135
TRISC0                            CONSTANT      00000000              0
TRISC1                            CONSTANT      00000001              1
TRISC2                            CONSTANT      00000002              2
TRISC3                            CONSTANT      00000003              3
TRISC4                            CONSTANT      00000004              4
TRISC5                            CONSTANT      00000005              5
TRISC6                            CONSTANT      00000006              6
TRISC7                            CONSTANT      00000007              7
TRISD                             CONSTANT      00000088            136
TRISD0                            CONSTANT      00000000              0
TRISD1                            CONSTANT      00000001              1
TRISD2                            CONSTANT      00000002              2
TRISD3                            CONSTANT      00000003              3
TRISD4                            CONSTANT      00000004              4
TRISD5                            CONSTANT      00000005              5
TRISD6                            CONSTANT      00000006              6
TRISD7                            CONSTANT      00000007              7
TRISE                             CONSTANT      00000089            137
TRISE0                            CONSTANT      00000000              0
TRISE1                            CONSTANT      00000001              1
TRISE2                            CONSTANT      00000002              2
TRISE3                            CONSTANT      00000003              3
TRMT                              CONSTANT      00000001              1
TUN0                              CONSTANT      00000000              0
TUN1                              CONSTANT      00000001              1
TUN2                              CONSTANT      00000002              2
TUN3                              CONSTANT      00000003              3
TUN4                              CONSTANT      00000004              4
TX8_9                             CONSTANT      00000006              6
gpasm-1.5.2 #1325 (Nov 17 2022)   asmfile.asm   26/10/2023  18:12:30        PAGE 109


SYMBOL TABLE
  LABEL                              TYPE        VALUE         VALUE          VALUE
                                                 (hex)         (dec)          (text)

TX9                               CONSTANT      00000006              6
TX9D                              CONSTANT      00000000              0
TXD8                              CONSTANT      00000000              0
TXEN                              CONSTANT      00000005              5
TXIE                              CONSTANT      00000004              4
TXIF                              CONSTANT      00000004              4
TXREG                             CONSTANT      00000019             25
TXSTA                             CONSTANT      00000098            152
UA                                CONSTANT      00000001              1
ULPWUE                            CONSTANT      00000005              5
ULPWUIE                           CONSTANT      00000002              2
ULPWUIF                           CONSTANT      00000002              2
VCFG0                             CONSTANT      00000004              4
VCFG1                             CONSTANT      00000005              5
VR0                               CONSTANT      00000000              0
VR1                               CONSTANT      00000001              1
VR2                               CONSTANT      00000002              2
VR3                               CONSTANT      00000003              3
VRCON                             CONSTANT      00000097            151
VREN                              CONSTANT      00000007              7
VROE                              CONSTANT      00000006              6
VRR                               CONSTANT      00000005              5
VRSS                              CONSTANT      00000004              4
W                                 CONSTANT      00000000              0
WCOL                              CONSTANT      00000007              7
WDTCON                            CONSTANT      00000105            261
WDTPS0                            CONSTANT      00000001              1
WDTPS1                            CONSTANT      00000002              2
WDTPS2                            CONSTANT      00000003              3
WDTPS3                            CONSTANT      00000004              4
WPUB                              CONSTANT      00000095            149
WPUB0                             CONSTANT      00000000              0
WPUB1                             CONSTANT      00000001              1
WPUB2                             CONSTANT      00000002              2
WPUB3                             CONSTANT      00000003              3
WPUB4                             CONSTANT      00000004              4
WPUB5                             CONSTANT      00000005              5
WPUB6                             CONSTANT      00000006              6
WPUB7                             CONSTANT      00000007              7
WR                                CONSTANT      00000001              1
WREN                              CONSTANT      00000002              2
WRERR                             CONSTANT      00000003              3
WUE                               CONSTANT      00000001              1
Z                                 CONSTANT      00000002              2
_BOR4V_BOR21V                     CONSTANT      00003EFF          16127
_BOR4V_BOR40V                     CONSTANT      00003FFF          16383
_BOR21V                           CONSTANT      00003EFF          16127
_BOR40V                           CONSTANT      00003FFF          16383
_BOREN_NSLEEP                     CONSTANT      00003EFF          16127
_BOREN_OFF                        CONSTANT      00003CFF          15615
_BOREN_ON                         CONSTANT      00003FFF          16383
_BOREN_SBODEN                     CONSTANT      00003DFF          15871
gpasm-1.5.2 #1325 (Nov 17 2022)   asmfile.asm   26/10/2023  18:12:30        PAGE 110


SYMBOL TABLE
  LABEL                              TYPE        VALUE         VALUE          VALUE
                                                 (hex)         (dec)          (text)

_BOR_NSLEEP                       CONSTANT      00003EFF          16127
_BOR_OFF                          CONSTANT      00003CFF          15615
_BOR_ON                           CONSTANT      00003FFF          16383
_BOR_SBODEN                       CONSTANT      00003DFF          15871
_CONFIG1                          CONSTANT      00002007           8199
_CONFIG2                          CONSTANT      00002008           8200
_CPD_OFF                          CONSTANT      00003FFF          16383
_CPD_ON                           CONSTANT      00003F7F          16255
_CP_OFF                           CONSTANT      00003FFF          16383
_CP_ON                            CONSTANT      00003FBF          16319
_DEBUG_OFF                        CONSTANT      00003FFF          16383
_DEBUG_ON                         CONSTANT      00001FFF           8191
_DEVID1                           CONSTANT      00002006           8198
_EC_OSC                           CONSTANT      00003FFB          16379
_EXTRC                            CONSTANT      00003FFF          16383
_EXTRCIO                          CONSTANT      00003FFE          16382
_EXTRC_OSC_CLKOUT                 CONSTANT      00003FFF          16383
_EXTRC_OSC_NOCLKOUT               CONSTANT      00003FFE          16382
_FCMEN_OFF                        CONSTANT      000037FF          14335
_FCMEN_ON                         CONSTANT      00003FFF          16383
_FOSC_EC                          CONSTANT      00003FFB          16379
_FOSC_EXTRC_CLKOUT                CONSTANT      00003FFF          16383
_FOSC_EXTRC_NOCLKOUT              CONSTANT      00003FFE          16382
_FOSC_HS                          CONSTANT      00003FFA          16378
_FOSC_INTRC_CLKOUT                CONSTANT      00003FFD          16381
_FOSC_INTRC_NOCLKOUT              CONSTANT      00003FFC          16380
_FOSC_LP                          CONSTANT      00003FF8          16376
_FOSC_XT                          CONSTANT      00003FF9          16377
_HS_OSC                           CONSTANT      00003FFA          16378
_IDLOC0                           CONSTANT      00002000           8192
_IDLOC1                           CONSTANT      00002001           8193
_IDLOC2                           CONSTANT      00002002           8194
_IDLOC3                           CONSTANT      00002003           8195
_IESO_OFF                         CONSTANT      00003BFF          15359
_IESO_ON                          CONSTANT      00003FFF          16383
_INTOSC                           CONSTANT      00003FFD          16381
_INTOSCIO                         CONSTANT      00003FFC          16380
_INTRC_OSC_CLKOUT                 CONSTANT      00003FFD          16381
_INTRC_OSC_NOCLKOUT               CONSTANT      00003FFC          16380
_LP_OSC                           CONSTANT      00003FF8          16376
_LVP_OFF                          CONSTANT      00002FFF          12287
_LVP_ON                           CONSTANT      00003FFF          16383
_MCLRE_OFF                        CONSTANT      00003FDF          16351
_MCLRE_ON                         CONSTANT      00003FFF          16383
_PWRTE_OFF                        CONSTANT      00003FFF          16383
_PWRTE_ON                         CONSTANT      00003FEF          16367
_WDTE_OFF                         CONSTANT      00003FF7          16375
_WDTE_ON                          CONSTANT      00003FFF          16383
_WDT_OFF                          CONSTANT      00003FF7          16375
_WDT_ON                           CONSTANT      00003FFF          16383
_WRT_1FOURTH                      CONSTANT      00003BFF          15359
_WRT_256                          CONSTANT      00003DFF          15871
gpasm-1.5.2 #1325 (Nov 17 2022)   asmfile.asm   26/10/2023  18:12:30        PAGE 111


SYMBOL TABLE
  LABEL                              TYPE        VALUE         VALUE          VALUE
                                                 (hex)         (dec)          (text)

_WRT_HALF                         CONSTANT      000039FF          14847
_WRT_OFF                          CONSTANT      00003FFF          16383
_XT_OSC                           CONSTANT      00003FF9          16377
__14_BIT                          CONSTANT      00000001              1
__16F884                          CONSTANT      00000001              1
__ACTIVE_BANK_ADDR                VARIABLE      FFFFFFFF             -1
__ACTIVE_PAGE_ADDR                VARIABLE      FFFFFFFF             -1
__ASSUMED_BANK_ADDR               VARIABLE      FFFFFFFF             -1
__BANK_0                          CONSTANT      00000000              0
__BANK_1                          CONSTANT      00000080            128
__BANK_2                          CONSTANT      00000100            256
__BANK_3                          CONSTANT      00000180            384
__BANK_BITS                       CONSTANT      00000180            384
__BANK_FIRST                      CONSTANT      00000000              0
__BANK_INV                        CONSTANT      FFFFFFFF             -1
__BANK_LAST                       CONSTANT      00000180            384
__BANK_MASK                       CONSTANT      0000007F            127
__BANK_SHIFT                      CONSTANT      00000007              7
__BANK_SIZE                       CONSTANT      00000080            128
__CODE_END                        CONSTANT      00000FFF           4095
__CODE_START                      CONSTANT      00000000              0
__COMMON_RAM_END                  CONSTANT      0000007F            127
__COMMON_RAM_START                CONSTANT      00000070            112
__CONFIG_END                      CONSTANT      00002008           8200
__CONFIG_START                    CONSTANT      00002007           8199
__EEPROM_END                      CONSTANT      000021FF           8703
__EEPROM_START                    CONSTANT      00002100           8448
__GPUTILS_SVN_VERSION             CONSTANT      0000052D           1325
__GPUTILS_VERSION_MAJOR           CONSTANT      00000001              1
__GPUTILS_VERSION_MICRO           CONSTANT      00000002              2
__GPUTILS_VERSION_MINOR           CONSTANT      00000005              5
__IDLOCS_END                      CONSTANT      00002003           8195
__IDLOCS_START                    CONSTANT      00002000           8192
__NUM_BANKS                       CONSTANT      00000004              4
__NUM_PAGES                       CONSTANT      00000002              2
__PAGE_0                          CONSTANT      00000000              0
__PAGE_1                          CONSTANT      00000800           2048
__PAGE_BITS                       CONSTANT      00001800           6144
__PAGE_FIRST                      CONSTANT      00000000              0
__PAGE_INV                        CONSTANT      FFFFFFFF             -1
__PAGE_LAST                       CONSTANT      00000800           2048
__PAGE_MASK                       CONSTANT      000007FF           2047
__PAGE_SHIFT                      CONSTANT      0000000B             11
__PAGE_SIZE                       CONSTANT      00000800           2048
__VECTOR_INT                      CONSTANT      00000004              4
__VECTOR_RESET                    CONSTANT      00000000              0
__WHILE_LOOP_COUNT_MAX            CONSTANT      000000FF            255
function_000                      ADDRESS       000001A8            424
function_001                      ADDRESS       000001C4            452
function_002                      ADDRESS       000001FC            508
function_003                      ADDRESS       0000020C            524
function_004                      ADDRESS       00000219            537
gpasm-1.5.2 #1325 (Nov 17 2022)   asmfile.asm   26/10/2023  18:12:30        PAGE 112


SYMBOL TABLE
  LABEL                              TYPE        VALUE         VALUE          VALUE
                                                 (hex)         (dec)          (text)

function_005                      ADDRESS       00000226            550
function_006                      ADDRESS       00000248            584
function_007                      ADDRESS       00000375            885
function_008                      ADDRESS       00000388            904
function_009                      ADDRESS       0000048D           1165
function_010                      ADDRESS       00000496           1174
function_011                      ADDRESS       0000049D           1181
function_012                      ADDRESS       000004A4           1188
function_013                      ADDRESS       000004AB           1195
function_014                      ADDRESS       000004AE           1198
function_015                      ADDRESS       000004B1           1201
label_001                         ADDRESS       00000001              1
label_003                         ADDRESS       00000028             40
label_004                         ADDRESS       00000030             48
label_005                         ADDRESS       0000003A             58
label_006                         ADDRESS       00000043             67
label_007                         ADDRESS       00000046             70
label_008                         ADDRESS       00000055             85
label_009                         ADDRESS       00000056             86
label_010                         ADDRESS       0000005C             92
label_011                         ADDRESS       00000060             96
label_012                         ADDRESS       0000006F            111
label_013                         ADDRESS       00000075            117
label_014                         ADDRESS       0000007C            124
label_015                         ADDRESS       0000007D            125
label_016                         ADDRESS       00000088            136
label_017                         ADDRESS       0000008B            139
label_018                         ADDRESS       00000093            147
label_019                         ADDRESS       00000096            150
label_020                         ADDRESS       0000009E            158
label_021                         ADDRESS       000000A1            161
label_022                         ADDRESS       000000A9            169
label_023                         ADDRESS       000000AC            172
label_024                         ADDRESS       000000B4            180
label_025                         ADDRESS       000000B7            183
label_026                         ADDRESS       000000BF            191
label_027                         ADDRESS       000000C2            194
label_028                         ADDRESS       000000CA            202
label_029                         ADDRESS       000000CD            205
label_030                         ADDRESS       000000D5            213
label_031                         ADDRESS       000000D8            216
label_032                         ADDRESS       000000E0            224
label_033                         ADDRESS       000000E3            227
label_034                         ADDRESS       000000EE            238
label_035                         ADDRESS       000000F1            241
label_036                         ADDRESS       000000F9            249
label_037                         ADDRESS       000000FC            252
label_038                         ADDRESS       00000104            260
label_039                         ADDRESS       00000107            263
label_040                         ADDRESS       0000010F            271
label_041                         ADDRESS       00000112            274
label_042                         ADDRESS       0000011A            282
gpasm-1.5.2 #1325 (Nov 17 2022)   asmfile.asm   26/10/2023  18:12:30        PAGE 113


SYMBOL TABLE
  LABEL                              TYPE        VALUE         VALUE          VALUE
                                                 (hex)         (dec)          (text)

label_043                         ADDRESS       0000011D            285
label_044                         ADDRESS       00000125            293
label_045                         ADDRESS       00000128            296
label_046                         ADDRESS       00000130            304
label_047                         ADDRESS       00000133            307
label_048                         ADDRESS       0000013B            315
label_049                         ADDRESS       0000013E            318
label_050                         ADDRESS       00000149            329
label_051                         ADDRESS       0000014C            332
label_052                         ADDRESS       00000154            340
label_053                         ADDRESS       00000157            343
label_054                         ADDRESS       0000015F            351
label_055                         ADDRESS       00000162            354
label_056                         ADDRESS       0000016A            362
label_057                         ADDRESS       0000016D            365
label_058                         ADDRESS       00000175            373
label_059                         ADDRESS       00000178            376
label_060                         ADDRESS       00000180            384
label_061                         ADDRESS       00000183            387
label_062                         ADDRESS       0000018B            395
label_063                         ADDRESS       0000018E            398
label_064                         ADDRESS       00000196            406
label_065                         ADDRESS       00000199            409
label_066                         ADDRESS       000001A1            417
label_067                         ADDRESS       000001A4            420
label_068                         ADDRESS       000001A5            421
label_069                         ADDRESS       000001CD            461
label_070                         ADDRESS       000001D2            466
label_071                         ADDRESS       000001DC            476
label_072                         ADDRESS       0000020E            526
label_073                         ADDRESS       00000210            528
label_074                         ADDRESS       00000212            530
label_075                         ADDRESS       0000021B            539
label_076                         ADDRESS       0000021D            541
label_077                         ADDRESS       0000021F            543
label_078                         ADDRESS       00000228            552
label_079                         ADDRESS       0000022A            554
label_080                         ADDRESS       0000022C            556
label_081                         ADDRESS       00000233            563
label_082                         ADDRESS       0000023A            570
label_083                         ADDRESS       00000257            599
label_084                         ADDRESS       00000262            610
label_085                         ADDRESS       0000026D            621
label_086                         ADDRESS       00000278            632
label_087                         ADDRESS       00000283            643
label_088                         ADDRESS       0000028E            654
label_089                         ADDRESS       00000299            665
label_090                         ADDRESS       000002A4            676
label_091                         ADDRESS       000002AF            687
label_092                         ADDRESS       000002BF            703
label_093                         ADDRESS       000002CA            714
label_094                         ADDRESS       000002D5            725
gpasm-1.5.2 #1325 (Nov 17 2022)   asmfile.asm   26/10/2023  18:12:30        PAGE 114


SYMBOL TABLE
  LABEL                              TYPE        VALUE         VALUE          VALUE
                                                 (hex)         (dec)          (text)

label_095                         ADDRESS       000002E0            736
label_096                         ADDRESS       000002EB            747
label_097                         ADDRESS       000002F6            758
label_098                         ADDRESS       00000301            769
label_099                         ADDRESS       0000030C            780
label_100                         ADDRESS       0000031A            794
label_101                         ADDRESS       00000325            805
label_102                         ADDRESS       00000330            816
label_103                         ADDRESS       0000033B            827
label_104                         ADDRESS       00000346            838
label_105                         ADDRESS       00000351            849
label_106                         ADDRESS       0000035C            860
label_107                         ADDRESS       00000367            871
label_108                         ADDRESS       00000372            882
label_109                         ADDRESS       00000374            884
label_110                         ADDRESS       00000392            914
label_111                         ADDRESS       0000039C            924
label_112                         ADDRESS       000003A6            934
label_113                         ADDRESS       000003B0            944
label_114                         ADDRESS       000003BA            954
label_115                         ADDRESS       000003C4            964
label_116                         ADDRESS       000003CE            974
label_117                         ADDRESS       000003D8            984
label_118                         ADDRESS       000003E2            994
label_119                         ADDRESS       000003EC           1004
label_120                         ADDRESS       000003F6           1014
label_121                         ADDRESS       00000400           1024
label_122                         ADDRESS       0000040A           1034
label_123                         ADDRESS       00000414           1044
label_124                         ADDRESS       0000041E           1054
label_125                         ADDRESS       00000428           1064
label_126                         ADDRESS       00000432           1074
label_127                         ADDRESS       0000043C           1084
label_128                         ADDRESS       00000446           1094
label_129                         ADDRESS       00000450           1104
label_130                         ADDRESS       0000045A           1114
label_131                         ADDRESS       00000464           1124
label_132                         ADDRESS       0000046E           1134
label_133                         ADDRESS       00000478           1144
label_134                         ADDRESS       00000482           1154
label_135                         ADDRESS       0000048B           1163
label_136                         ADDRESS       0000048C           1164
label_137                         ADDRESS       00000495           1173
vector_int                        ADDRESS       00000004              4
vector_reset                      ADDRESS       00000000              0


MEMORY USAGE MAP ('X' = Used,  '-' = Unused)

0000 : XXXXXXXXXXXXXXXX XXXXXXXXXXXXXXXX XXXXXXXXXXXXXXXX XXXXXXXXXXXXXXXX
0040 : XXXXXXXXXXXXXXXX XXXXXXXXXXXXXXXX XXXXXXXXXXXXXXXX XXXXXXXXXXXXXXXX
0080 : XXXXXXXXXXXXXXXX XXXXXXXXXXXXXXXX XXXXXXXXXXXXXXXX XXXXXXXXXXXXXXXX
gpasm-1.5.2 #1325 (Nov 17 2022)   asmfile.asm   26/10/2023  18:12:30        PAGE 115


MEMORY USAGE MAP ('X' = Used,  '-' = Unused)

00C0 : XXXXXXXXXXXXXXXX XXXXXXXXXXXXXXXX XXXXXXXXXXXXXXXX XXXXXXXXXXXXXXXX
0100 : XXXXXXXXXXXXXXXX XXXXXXXXXXXXXXXX XXXXXXXXXXXXXXXX XXXXXXXXXXXXXXXX
0140 : XXXXXXXXXXXXXXXX XXXXXXXXXXXXXXXX XXXXXXXXXXXXXXXX XXXXXXXXXXXXXXXX
0180 : XXXXXXXXXXXXXXXX XXXXXXXXXXXXXXXX XXXXXXXXXXXXXXXX XXXXXXXXXXXXXXXX
01C0 : XXXXXXXXXXXXXXXX XXXXXXXXXXXXXXXX XXXXXXXXXXXXXXXX XXXXXXXXXXXXXXXX
0200 : XXXXXXXXXXXXXXXX XXXXXXXXXXXXXXXX XXXXXXXXXXXXXXXX XXXXXXXXXXXXXXXX
0240 : XXXXXXXXXXXXXXXX XXXXXXXXXXXXXXXX XXXXXXXXXXXXXXXX XXXXXXXXXXXXXXXX
0280 : XXXXXXXXXXXXXXXX XXXXXXXXXXXXXXXX XXXXXXXXXXXXXXXX XXXXXXXXXXXXXXXX
02C0 : XXXXXXXXXXXXXXXX XXXXXXXXXXXXXXXX XXXXXXXXXXXXXXXX XXXXXXXXXXXXXXXX
0300 : XXXXXXXXXXXXXXXX XXXXXXXXXXXXXXXX XXXXXXXXXXXXXXXX XXXXXXXXXXXXXXXX
0340 : XXXXXXXXXXXXXXXX XXXXXXXXXXXXXXXX XXXXXXXXXXXXXXXX XXXXXXXXXXXXXXXX
0380 : XXXXXXXXXXXXXXXX XXXXXXXXXXXXXXXX XXXXXXXXXXXXXXXX XXXXXXXXXXXXXXXX
03C0 : XXXXXXXXXXXXXXXX XXXXXXXXXXXXXXXX XXXXXXXXXXXXXXXX XXXXXXXXXXXXXXXX
0400 : XXXXXXXXXXXXXXXX XXXXXXXXXXXXXXXX XXXXXXXXXXXXXXXX XXXXXXXXXXXXXXXX
0440 : XXXXXXXXXXXXXXXX XXXXXXXXXXXXXXXX XXXXXXXXXXXXXXXX XXXXXXXXXXXXXXXX
0480 : XXXXXXXXXXXXXXXX XXXXXXXXXXXXXXXX XXXXXXXXXXXXXXXX XXXXXXXXXXXXXXXX
04C0 : XXXXXXXXXXXXXXXX XXXXXXXXXXXXXXXX XXXXXXXXXXXXXXXX XXXXXXXXXXXXXXXX
0500 : XXXXXXXXXXXXXXXX XXXXXXXXXXXXXXXX XXXXXXXXXXXXXXXX XXXXXXXXXXXXXXXX
0540 : XXXXXXXXXXXXXXXX XXXXXXXXXXXXXXXX XXXXXXXXXXXXXXXX XXXXXXXXXXXXXXXX
0580 : XXXXXXXXXXXXXXXX XXXXXXXXXXXXXXXX XXXXXXXXXXXXXXXX XXXXXXXXXXXXXXXX
05C0 : XXXXXXXXXXXXXXXX XXXXXXXXXXXXXXXX XXXXXXXXXXXXXXXX XXXXXXXXXXXXXXXX
0600 : XXXXXXXXXXXXXXXX XXXXXXXXXXXXXXXX XXXXXXXXXXXXXXXX XXXXXXXXXXXXXXXX
0640 : XXXXXXXXXXXXXXXX XXXXXXXXXXXXXXXX XXXXXXXXXXXXXXXX XXXXXXXXXXXXXXXX
0680 : XXXXXXXXXXXXXXXX XXXXXXXXXXXXXXXX XXXXXXXXXXXXXXXX XXXXXXXXXXXXXXXX
06C0 : XXXXXXXXXXXXXXXX XXXXXXXXXXXXXXXX XXXXXXXXXXXXXXXX XXXXXXXXXXXXXXXX
0700 : XXXXXXXXXXXXXXXX XXXXXXXXXXXXXXXX XXXXXXXXXXXXXXXX XXXXXXXXXXXXXXXX
0740 : XXXXXXXXXXXXXXXX XXXXXXXXXXXXXXXX XXXXXXXXXXXXXXXX XXXXXXXXXXXXXXXX
0780 : XXXXXXXXXXXXXXXX XXXXXXXXXXXXXXXX XXXXXXXXXXXXXXXX XXXXXXXXXXXXXXXX
07C0 : XXXXXXXXXXXXXXXX XXXXXXXXXXXXXXXX XXXXXXXXXXXXXXXX XXXXXXXXXXXXXXXX
0800 : XXXXXXXXXXXXXXXX XXXXXXXXXXXXXXXX XXXXXXXXXXXXXXXX XXXXXXXXXXXXXXXX
0840 : XXXXXXXXXXXXXXXX XXXXXXXXXXXXXXXX XXXXXXXXXXXXXXXX XXXXXXXXXXXXXXXX
0880 : XXXXXXXXXXXXXXXX XXXXXXXXXXXXXXXX XXXXXXXXXXXXXXXX XXXXXXXXXXXXXXXX
08C0 : XXXXXXXXXXXXXXXX XXXXXXXXXXXXXXXX XXXXXXXXXXXXXXXX XXXXXXXXXXXXXXXX
0900 : XXXXXXXXXXXXXXXX XXXXXXXXXXXXXXXX XXXXXXXXXXXXXXXX XXXXXXXXXXXXXXXX
0940 : XXXXXXXXXXXXXXXX XXXXXXXXXXXXXXXX XXXXXXXXXXXXXXXX XXXXXXXXXXXXXXXX
0980 : XXXXXXXXXXXXXXXX XXXXXXXXXXXXXXXX XXXXXXXXXXXXXXXX XXXXXXXXXXXXXXXX
09C0 : XXXXXXXXXXXXXXXX XXXXXXXXXXXXXXXX XXXXXXXXXXXXXXXX XXXXXXXXXXXXXXXX
0A00 : XXXXXXXXXXXXXXXX XXXXXXXXXXXXXXXX XXXXXXXXXXXXXXXX XXXXXXXXXXXXXXXX
0A40 : XXXXXXXXXXXXXXXX XXXXXXXXXXXXXXXX XXXXXXXXXXXXXXXX XXXXXXXXXXXXXXXX
0A80 : XXXXXXXXXXXXXXXX XXXXXXXXXXXXXXXX XXXXXXXXXXXXXXXX XXXXXXXXXXXXXXXX
0AC0 : XXXXXXXXXXXXXXXX XXXXXXXXXXXXXXXX XXXXXXXXXXXXXXXX XXXXXXXXXXXXXXXX
0B00 : XXXXXXXXXXXXXXXX XXXXXXXXXXXXXXXX XXXXXXXXXXXXXXXX XXXXXXXXXXXXXXXX
0B40 : XXXXXXXXXXXXXXXX XXXXXXXXXXXXXXXX XXXXXXXXXXXXXXXX XXXXXXXXXXXXXXXX
0B80 : XXXXXXXXXXXXXXXX XXXXXXXXXXXXXXXX XXXXXXXXXXXXXXXX XXXXXXXXXXXXXXXX
0BC0 : XXXXXXXXXXXXXXXX XXXXXXXXXXXXXXXX XXXXXXXXXXXXXXXX XXXXXXXXXXXXXXXX
0C00 : XXXXXXXXXXXXXXXX XXXXXXXXXXXXXXXX XXXXXXXXXXXXXXXX XXXXXXXXXXXXXXXX
0C40 : XXXXXXXXXXXXXXXX XXXXXXXXXXXXXXXX XXXXXXXXXXXXXXXX XXXXXXXXXXXXXXXX
0C80 : XXXXXXXXXXXXXXXX XXXXXXXXXXXXXXXX XXXXXXXXXXXXXXXX XXXXXXXXXXXXXXXX
0CC0 : XXXXXXXXXXXXXXXX XXXXXXXXXXXXXXXX XXXXXXXXXXXXXXXX XXXXXXXXXXXXXXXX
0D00 : XXXXXXXXXXXXXXXX XXXXXXXXXXXXXXXX XXXXXXXXXXXXXXXX XXXXXXXXXXXXXXXX
0D40 : XXXXXXXXXXXXXXXX XXXXXXXXXXXXXXXX XXXXXXXXXXXXXXXX XXXXXXXXXXXXXXXX
0D80 : XXXXXXXXXXXXXXXX XXXXXXXXXXXXXXXX XXXXXXXXXXXXXXXX XXXXXXXXXXXXXXXX
0DC0 : XXXXXXXXXXXXXXXX XXXXXXXXXXXXXXXX XXXXXXXXXXXXXXXX XXXXXXXXXXXXXXXX
0E00 : XXXXXXXXXXXXXXXX XXXXXXXXXXXXXXXX XXXXXXXXXXXXXXXX XXXXXXXXXXXXXXXX
gpasm-1.5.2 #1325 (Nov 17 2022)   asmfile.asm   26/10/2023  18:12:30        PAGE 116


MEMORY USAGE MAP ('X' = Used,  '-' = Unused)

0E40 : XXXXXXXXXXXXXXXX XXXXXXXXXXXXXXXX XXXXXXXXXXXXXXXX XXXXXXXXXXXXXXXX
0E80 : XXXXXXXXXXXXXXXX XXXXXXXXXXXXXXXX XXXXXXXXXXXXXXXX XXXXXXXXXXXXXXXX
0EC0 : XXXXXXXXXXXXXXXX XXXXXXXXXXXXXXXX XXXXXXXXXXXXXXXX XXXXXXXXXXXXXXXX
0F00 : XXXXXXXXXXXXXXXX XXXXXXXXXXXXXXXX XXXXXXXXXXXXXXXX XXXXXXXXXXXXXXXX
0F40 : XXXXXXXXXXXXXXXX XXXXXXXXXXXXXXXX XXXXXXXXXXXXXXXX XXXXXXXXXXXXXXXX
0F80 : XXXXXXXXXXXXXXXX XXXXXXXXXXXXXXXX XXXXXXXXXXXXXXXX XXXXXXXXXXXXXXXX
0FC0 : XXXXXXXXXXXXXXXX XXXXXXXXXXXXXXXX XXXXXXXXXXXXXXXX XXXXXXXXXXXXXXXX
2000 : XXXX---XX------- ---------------- ---------------- ----------------
2100 : XXXXXXXXXXXXXXXX XXXXXXXXXXXXXXXX XXXXXXXXXXXXXXXX XXXXXXXXXXXXXXXX
2140 : XXXXXXXXXXXXXXXX XXXXXXXXXXXXXXXX XXXXXXXXXXXXXXXX XXXXXXXXXXXXXXXX
2180 : XXXXXXXXXXXXXXXX XXXXXXXXXXXXXXXX XXXXXXXXXXXXXXXX XXXXXXXXXXXXXXXX
21C0 : XXXXXXXXXXXXXXXX XXXXXXXXXXXXXXXX XXXXXXXXXXXXXXXX XXXXXXXXXXXXXXXX
2200 : X--------------- ---------------- ---------------- ----------------

All other memory blocks unused.

Program Memory Words Used:  4096
Program Memory Words Free:     0


Errors   :     0
Warnings :     2 reported,     0 suppressed
Messages :   155 reported,     0 suppressed

